ASxxxx Linker V03.00 + NoICE + sdld,  page 1.
Hexadecimal  [32-Bits]

Area                                    Addr        Size        Decimal Bytes (Attributes)
--------------------------------        ----        ----        ------- ----- ------------
CABS                                00000000    00000000 =           0. bytes (ABS,CON,CODE)

      Value  Global                              Global Defined In Module
      -----  --------------------------------   ------------------------
C:   00000000  l_BIT_BANK                      
C:   00000000  l_CABS                          
C:   00000000  l_GSINIT                        
C:   00000000  l_GSINIT1                       
C:   00000000  l_GSINIT5                       
C:   00000000  l_IABS                          
C:   00000000  l_ISEG                          
C:   00000000  l_PSEG                          
C:   00000000  l_REG_BANK_1                    
C:   00000000  l_REG_BANK_2                    
C:   00000000  l_REG_BANK_3                    
C:   00000000  l_RSEG                          
C:   00000000  l_RSEG0                         
C:   00000000  l_RSEG1                         
C:   00000000  l_XABS                          
C:   00000000  l_XINIT                         
C:   00000000  l_XISEG                         
C:   00000000  l__CODE                         
C:   00000000  s_BSEG                          
C:   00000000  s_CABS                          
C:   00000000  s_DSEG                          
C:   00000000  s_IABS                          
C:   00000000  s_ISEG                          
C:   00000000  s_REG_BANK_0                    
C:   00000000  s_RSEG                          
C:   00000000  s_RSEG0                         
C:   00000000  s_RSEG1                         
C:   00000000  s_XABS                          
C:   00000001  l_BSEG_BYTES                    
C:   00000001  l_OSEG                          
C:   00000003  l_BSEG                          
C:   00000003  l_GSFINAL                       
C:   00000003  l_GSINIT0                       
C:   00000006  l_HOME                          
C:   00000008  l_REG_BANK_0                    
C:   00000008  s_REG_BANK_1                    
C:   0000000A  l_GSINIT2                       
C:   00000010  s_REG_BANK_2                    
C:   00000018  s_BIT_BANK                      
C:   00000018  s_REG_BANK_3                    
C:   00000019  s_OSEG                          
C:   00000020  s_BSEG_BYTES                    
C:   00000020  s__CODE                         
C:   00000021  s_SSEG                          
C:   00000022  l_GSINIT3                       
C:   0000002A  l_GSINIT4                       
C:   0000007A  l_DSEG                          
C:   000000AC  l_XSEG                          
C:   000000DF  l_SSEG                          
C:   00000100  l_IRAM                          
ASxxxx Linker V03.00 + NoICE + sdld,  page 2.
Hexadecimal  [32-Bits]

Area                                    Addr        Size        Decimal Bytes (Attributes)
--------------------------------        ----        ----        ------- ----- ------------
CABS                                00000000    00000000 =           0. bytes (ABS,CON,CODE)

      Value  Global                              Global Defined In Module
      -----  --------------------------------   ------------------------
C:   00000400  s_PSEG                          
C:   00000400  s_XSEG                          
C:   000004AC  s_XISEG                         
C:   00000775  l_CONST                         
C:   00001C05  l_CSEG                          
C:   00002000  s_HOME                          
C:   00002006  s_GSINIT0                       
C:   00002009  s_GSINIT1                       
C:   00002009  s_GSINIT2                       
C:   00002013  s_GSINIT3                       
C:   00002035  s_GSINIT4                       
C:   0000205F  s_GSFINAL                       
C:   0000205F  s_GSINIT                        
C:   0000205F  s_GSINIT5                       
C:   00002062  s_CSEG                          
C:   00003C67  s_CONST                         
C:   000043DC  s_XINIT                         

ASxxxx Linker V03.00 + NoICE + sdld,  page 3.
Hexadecimal  [32-Bits]

Area                                    Addr        Size        Decimal Bytes (Attributes)
--------------------------------        ----        ----        ------- ----- ------------
.  .ABS.                            00000000    00000000 =           0. bytes (ABS,CON)

      Value  Global                              Global Defined In Module
      -----  --------------------------------   ------------------------
     00000000  .__.ABS.                           _gptrget
     00000080  G$P0$0_0$0                         uart
     00000080  G$P0_0$0_0$0                       uart
     00000080  _P0                                uart
     00000080  _P0_0                              uart
     00000081  G$P0_1$0_0$0                       uart
     00000081  G$SP$0_0$0                         uart
     00000081  _P0_1                              uart
     00000081  _SP                                uart
     00000082  G$DP0L$0_0$0                       uart
     00000082  G$DPL$0_0$0                        uart
     00000082  G$P0_2$0_0$0                       uart
     00000082  _DP0L                              uart
     00000082  _DPL                               uart
     00000082  _P0_2                              uart
     00000083  G$DP0H$0_0$0                       uart
     00000083  G$DPH$0_0$0                        uart
     00000083  G$P0_3$0_0$0                       uart
     00000083  _DP0H                              uart
     00000083  _DPH                               uart
     00000083  _P0_3                              uart
     00000084  G$P0_4$0_0$0                       uart
     00000084  _P0_4                              uart
     00000085  G$P0_5$0_0$0                       uart
     00000085  _P0_5                              uart
     00000086  G$P0_6$0_0$0                       uart
     00000086  _P0_6                              uart
     00000087  G$P0_7$0_0$0                       uart
     00000087  G$PCON$0_0$0                       uart
     00000087  _P0_7                              uart
     00000087  _PCON                              uart
     00000088  G$IT0$0_0$0                        uart
     00000088  G$TCON$0_0$0                       uart
     00000088  _IT0                               uart
     00000088  _TCON                              uart
     00000089  G$IE0$0_0$0                        uart
     00000089  G$TMOD$0_0$0                       uart
     00000089  _IE0                               uart
     00000089  _TMOD                              uart
     0000008A  G$IT1$0_0$0                        uart
     0000008A  G$TL0$0_0$0                        uart
     0000008A  _IT1                               uart
     0000008A  _TL0                               uart
     0000008B  G$IE1$0_0$0                        uart
     0000008B  G$TL1$0_0$0                        uart
     0000008B  _IE1                               uart
     0000008B  _TL1                               uart
     0000008C  G$TH0$0_0$0                        uart
     0000008C  G$TR0$0_0$0                        uart
     0000008C  _TH0                               uart
ASxxxx Linker V03.00 + NoICE + sdld,  page 4.
Hexadecimal  [32-Bits]

Area                                    Addr        Size        Decimal Bytes (Attributes)
--------------------------------        ----        ----        ------- ----- ------------
.  .ABS.                            00000000    00000000 =           0. bytes (ABS,CON)

      Value  Global                              Global Defined In Module
      -----  --------------------------------   ------------------------
     0000008C  _TR0                               uart
     0000008D  G$TF0$0_0$0                        uart
     0000008D  G$TH1$0_0$0                        uart
     0000008D  _TF0                               uart
     0000008D  _TH1                               uart
     0000008E  G$AUXR$0_0$0                       uart
     0000008E  G$TR1$0_0$0                        uart
     0000008E  _AUXR                              uart
     0000008E  _TR1                               uart
     0000008F  G$CKCON0$0_0$0                     uart
     0000008F  G$TF1$0_0$0                        uart
     0000008F  _CKCON0                            uart
     0000008F  _TF1                               uart
     00000090  G$P1$0_0$0                         uart
     00000090  G$P1_0$0_0$0                       uart
     00000090  _P1                                uart
     00000090  _P1_0                              uart
     00000091  G$P1_1$0_0$0                       uart
     00000091  _P1_1                              uart
     00000092  G$P1_2$0_0$0                       uart
     00000092  _P1_2                              uart
     00000093  G$P1_3$0_0$0                       uart
     00000093  _P1_3                              uart
     00000094  G$P1_4$0_0$0                       uart
     00000094  _P1_4                              uart
     00000095  G$P1_5$0_0$0                       uart
     00000095  _P1_5                              uart
     00000096  G$P1_6$0_0$0                       uart
     00000096  _P1_6                              uart
     00000097  G$CKRL$0_0$0                       uart
     00000097  G$P1_7$0_0$0                       uart
     00000097  _CKRL                              uart
     00000097  _P1_7                              uart
     00000098  G$RI$0_0$0                         uart
     00000098  G$SCON$0_0$0                       uart
     00000098  _RI                                uart
     00000098  _SCON                              uart
     00000099  G$SBUF$0_0$0                       uart
     00000099  G$SBUF0$0_0$0                      uart
     00000099  G$TI$0_0$0                         uart
     00000099  _SBUF                              uart
     00000099  _SBUF0                             uart
     00000099  _TI                                uart
     0000009A  G$BRL$0_0$0                        uart
     0000009A  G$RB8$0_0$0                        uart
     0000009A  _BRL                               uart
     0000009A  _RB8                               uart
     0000009B  G$BDRCON$0_0$0                     uart
     0000009B  G$TB8$0_0$0                        uart
     0000009B  _BDRCON                            uart
     0000009B  _TB8                               uart
ASxxxx Linker V03.00 + NoICE + sdld,  page 5.
Hexadecimal  [32-Bits]

Area                                    Addr        Size        Decimal Bytes (Attributes)
--------------------------------        ----        ----        ------- ----- ------------
.  .ABS.                            00000000    00000000 =           0. bytes (ABS,CON)

      Value  Global                              Global Defined In Module
      -----  --------------------------------   ------------------------
     0000009C  G$KBLS$0_0$0                       uart
     0000009C  G$REN$0_0$0                        uart
     0000009C  _KBLS                              uart
     0000009C  _REN                               uart
     0000009D  G$KBE$0_0$0                        uart
     0000009D  G$SM2$0_0$0                        uart
     0000009D  _KBE                               uart
     0000009D  _SM2                               uart
     0000009E  G$KBF$0_0$0                        uart
     0000009E  G$SM1$0_0$0                        uart
     0000009E  _KBF                               uart
     0000009E  _SM1                               uart
     0000009F  G$SM0$0_0$0                        uart
     0000009F  _SM0                               uart
     000000A0  G$P2$0_0$0                         uart
     000000A0  G$P2_0$0_0$0                       uart
     000000A0  _P2                                uart
     000000A0  _P2_0                              uart
     000000A0  __XPAGE                            
     000000A1  G$P2_1$0_0$0                       uart
     000000A1  _P2_1                              uart
     000000A2  G$AUXR1$0_0$0                      uart
     000000A2  G$P2_2$0_0$0                       uart
     000000A2  _AUXR1                             uart
     000000A2  _P2_2                              uart
     000000A3  G$P2_3$0_0$0                       uart
     000000A3  _P2_3                              uart
     000000A4  G$P2_4$0_0$0                       uart
     000000A4  _P2_4                              uart
     000000A5  G$P2_5$0_0$0                       uart
     000000A5  _P2_5                              uart
     000000A6  G$P2_6$0_0$0                       uart
     000000A6  G$WDTRST$0_0$0                     uart
     000000A6  _P2_6                              uart
     000000A6  _WDTRST                            uart
     000000A7  G$P2_7$0_0$0                       uart
     000000A7  G$WDTPRG$0_0$0                     uart
     000000A7  _P2_7                              uart
     000000A7  _WDTPRG                            uart
     000000A8  G$EX0$0_0$0                        uart
     000000A8  G$IE$0_0$0                         uart
     000000A8  G$IEN0$0_0$0                       uart
     000000A8  _EX0                               uart
     000000A8  _IE                                uart
     000000A8  _IEN0                              uart
     000000A9  G$ET0$0_0$0                        uart
     000000A9  G$SADDR$0_0$0                      uart
     000000A9  _ET0                               uart
     000000A9  _SADDR                             uart
     000000AA  G$EX1$0_0$0                        uart
     000000AA  _EX1                               uart
ASxxxx Linker V03.00 + NoICE + sdld,  page 6.
Hexadecimal  [32-Bits]

Area                                    Addr        Size        Decimal Bytes (Attributes)
--------------------------------        ----        ----        ------- ----- ------------
.  .ABS.                            00000000    00000000 =           0. bytes (ABS,CON)

      Value  Global                              Global Defined In Module
      -----  --------------------------------   ------------------------
     000000AB  G$ET1$0_0$0                        uart
     000000AB  _ET1                               uart
     000000AC  G$ES$0_0$0                         uart
     000000AC  _ES                                uart
     000000AD  G$ET2$0_0$0                        uart
     000000AD  _ET2                               uart
     000000AE  G$EC$0_0$0                         uart
     000000AE  _EC                                uart
     000000AF  G$CKCON1$0_0$0                     uart
     000000AF  G$EA$0_0$0                         uart
     000000AF  _CKCON1                            uart
     000000AF  _EA                                uart
     000000B0  G$P3$0_0$0                         uart
     000000B0  G$P3_0$0_0$0                       uart
     000000B0  G$RXD$0_0$0                        uart
     000000B0  G$RXD0$0_0$0                       uart
     000000B0  _P3                                uart
     000000B0  _P3_0                              uart
     000000B0  _RXD                               uart
     000000B0  _RXD0                              uart
     000000B1  G$IEN1$0_0$0                       uart
     000000B1  G$P3_1$0_0$0                       uart
     000000B1  G$TXD$0_0$0                        uart
     000000B1  G$TXD0$0_0$0                       uart
     000000B1  _IEN1                              uart
     000000B1  _P3_1                              uart
     000000B1  _TXD                               uart
     000000B1  _TXD0                              uart
     000000B2  G$INT0$0_0$0                       uart
     000000B2  G$IPL1$0_0$0                       uart
     000000B2  G$P3_2$0_0$0                       uart
     000000B2  _INT0                              uart
     000000B2  _IPL1                              uart
     000000B2  _P3_2                              uart
     000000B3  G$INT1$0_0$0                       uart
     000000B3  G$IPH1$0_0$0                       uart
     000000B3  G$P3_3$0_0$0                       uart
     000000B3  _INT1                              uart
     000000B3  _IPH1                              uart
     000000B3  _P3_3                              uart
     000000B4  G$P3_4$0_0$0                       uart
     000000B4  G$T0$0_0$0                         uart
     000000B4  _P3_4                              uart
     000000B4  _T0                                uart
     000000B5  G$P3_5$0_0$0                       uart
     000000B5  G$T1$0_0$0                         uart
     000000B5  _P3_5                              uart
     000000B5  _T1                                uart
     000000B6  G$P3_6$0_0$0                       uart
     000000B6  G$WR$0_0$0                         uart
     000000B6  _P3_6                              uart
ASxxxx Linker V03.00 + NoICE + sdld,  page 7.
Hexadecimal  [32-Bits]

Area                                    Addr        Size        Decimal Bytes (Attributes)
--------------------------------        ----        ----        ------- ----- ------------
.  .ABS.                            00000000    00000000 =           0. bytes (ABS,CON)

      Value  Global                              Global Defined In Module
      -----  --------------------------------   ------------------------
     000000B6  _WR                                uart
     000000B7  G$IPH0$0_0$0                       uart
     000000B7  G$P3_7$0_0$0                       uart
     000000B7  G$RD$0_0$0                         uart
     000000B7  _IPH0                              uart
     000000B7  _P3_7                              uart
     000000B7  _RD                                uart
     000000B8  G$IP$0_0$0                         uart
     000000B8  G$IPL0$0_0$0                       uart
     000000B8  G$PX0$0_0$0                        uart
     000000B8  G$PX0L$0_0$0                       uart
     000000B8  _IP                                uart
     000000B8  _IPL0                              uart
     000000B8  _PX0                               uart
     000000B8  _PX0L                              uart
     000000B9  G$PT0$0_0$0                        uart
     000000B9  G$PT0L$0_0$0                       uart
     000000B9  G$SADEN$0_0$0                      uart
     000000B9  _PT0                               uart
     000000B9  _PT0L                              uart
     000000B9  _SADEN                             uart
     000000BA  G$PX1$0_0$0                        uart
     000000BA  G$PX1L$0_0$0                       uart
     000000BA  _PX1                               uart
     000000BA  _PX1L                              uart
     000000BB  G$PT1$0_0$0                        uart
     000000BB  G$PT1L$0_0$0                       uart
     000000BB  _PT1                               uart
     000000BB  _PT1L                              uart
     000000BC  G$PLS$0_0$0                        i2c
     000000BC  G$PS$0_0$0                         uart
     000000BC  G$PSL$0_0$0                        uart
     000000BC  _PLS                               i2c
     000000BC  _PS                                uart
     000000BC  _PSL                               uart
     000000BD  G$PT2$0_0$0                        uart
     000000BD  G$PT2L$0_0$0                       uart
     000000BD  _PT2                               uart
     000000BD  _PT2L                              uart
     000000BE  G$PPCL$0_0$0                       uart
     000000BE  _PPCL                              uart
     000000C0  G$P4$0_0$0                         uart
     000000C0  G$P4_0$0_0$0                       uart
     000000C0  _P4                                uart
     000000C0  _P4_0                              uart
     000000C1  G$P4_1$0_0$0                       uart
     000000C1  _P4_1                              uart
     000000C2  G$P4_2$0_0$0                       uart
     000000C2  _P4_2                              uart
     000000C3  G$P4_3$0_0$0                       uart
     000000C3  G$SPCON$0_0$0                      uart
ASxxxx Linker V03.00 + NoICE + sdld,  page 8.
Hexadecimal  [32-Bits]

Area                                    Addr        Size        Decimal Bytes (Attributes)
--------------------------------        ----        ----        ------- ----- ------------
.  .ABS.                            00000000    00000000 =           0. bytes (ABS,CON)

      Value  Global                              Global Defined In Module
      -----  --------------------------------   ------------------------
     000000C3  _P4_3                              uart
     000000C3  _SPCON                             uart
     000000C4  G$P4_4$0_0$0                       uart
     000000C4  G$SPSTA$0_0$0                      uart
     000000C4  _P4_4                              uart
     000000C4  _SPSTA                             uart
     000000C5  G$P4_5$0_0$0                       uart
     000000C5  G$SPDAT$0_0$0                      uart
     000000C5  _P4_5                              uart
     000000C5  _SPDAT                             uart
     000000C6  G$P4_6$0_0$0                       uart
     000000C6  _P4_6                              uart
     000000C7  G$P4_7$0_0$0                       uart
     000000C7  _P4_7                              uart
     000000C8  G$CP_RL2$0_0$0                     uart
     000000C8  G$T2CON$0_0$0                      uart
     000000C8  G$T2CON_0$0_0$0                    uart
     000000C8  _CP_RL2                            uart
     000000C8  _T2CON                             uart
     000000C8  _T2CON_0                           uart
     000000C9  G$C_T2$0_0$0                       uart
     000000C9  G$T2CON_1$0_0$0                    uart
     000000C9  G$T2MOD$0_0$0                      uart
     000000C9  _C_T2                              uart
     000000C9  _T2CON_1                           uart
     000000C9  _T2MOD                             uart
     000000CA  G$RCAP2L$0_0$0                     uart
     000000CA  G$T2CON_2$0_0$0                    uart
     000000CA  G$TR2$0_0$0                        uart
     000000CA  _RCAP2L                            uart
     000000CA  _T2CON_2                           uart
     000000CA  _TR2                               uart
     000000CB  G$EXEN2$0_0$0                      uart
     000000CB  G$RCAP2H$0_0$0                     uart
     000000CB  G$T2CON_3$0_0$0                    uart
     000000CB  _EXEN2                             uart
     000000CB  _RCAP2H                            uart
     000000CB  _T2CON_3                           uart
     000000CC  G$T2CON_4$0_0$0                    uart
     000000CC  G$TCLK$0_0$0                       uart
     000000CC  G$TL2$0_0$0                        uart
     000000CC  _T2CON_4                           uart
     000000CC  _TCLK                              uart
     000000CC  _TL2                               uart
     000000CD  G$RCLK$0_0$0                       uart
     000000CD  G$T2CON_5$0_0$0                    uart
     000000CD  G$TH2$0_0$0                        uart
     000000CD  _RCLK                              uart
     000000CD  _T2CON_5                           uart
     000000CD  _TH2                               uart
     000000CE  G$EXF2$0_0$0                       uart
ASxxxx Linker V03.00 + NoICE + sdld,  page 9.
Hexadecimal  [32-Bits]

Area                                    Addr        Size        Decimal Bytes (Attributes)
--------------------------------        ----        ----        ------- ----- ------------
.  .ABS.                            00000000    00000000 =           0. bytes (ABS,CON)

      Value  Global                              Global Defined In Module
      -----  --------------------------------   ------------------------
     000000CE  G$T2CON_6$0_0$0                    uart
     000000CE  _EXF2                              uart
     000000CE  _T2CON_6                           uart
     000000CF  G$T2CON_7$0_0$0                    uart
     000000CF  G$TF2$0_0$0                        uart
     000000CF  _T2CON_7                           uart
     000000CF  _TF2                               uart
     000000D0  G$P$0_0$0                          uart
     000000D0  G$PSW$0_0$0                        uart
     000000D0  _P                                 uart
     000000D0  _PSW                               uart
     000000D1  G$F1$0_0$0                         uart
     000000D1  _F1                                uart
     000000D2  G$EECON$0_0$0                      uart
     000000D2  G$OV$0_0$0                         uart
     000000D2  _EECON                             uart
     000000D2  _OV                                uart
     000000D3  G$RS0$0_0$0                        uart
     000000D3  _RS0                               uart
     000000D4  G$RS1$0_0$0                        uart
     000000D4  _RS1                               uart
     000000D5  G$F0$0_0$0                         uart
     000000D5  _F0                                uart
     000000D6  G$AC$0_0$0                         uart
     000000D6  _AC                                uart
     000000D7  G$CY$0_0$0                         uart
     000000D7  _CY                                uart
     000000D8  G$CCF0$0_0$0                       uart
     000000D8  G$CCON$0_0$0                       uart
     000000D8  _CCF0                              uart
     000000D8  _CCON                              uart
     000000D9  G$CCF1$0_0$0                       uart
     000000D9  G$CMOD$0_0$0                       uart
     000000D9  _CCF1                              uart
     000000D9  _CMOD                              uart
     000000DA  G$CCAPM0$0_0$0                     uart
     000000DA  G$CCF2$0_0$0                       uart
     000000DA  _CCAPM0                            uart
     000000DA  _CCF2                              uart
     000000DB  G$CCAPM1$0_0$0                     uart
     000000DB  G$CCF3$0_0$0                       uart
     000000DB  _CCAPM1                            uart
     000000DB  _CCF3                              uart
     000000DC  G$CCAPM2$0_0$0                     uart
     000000DC  G$CCF4$0_0$0                       uart
     000000DC  _CCAPM2                            uart
     000000DC  _CCF4                              uart
     000000DD  G$CCAPM3$0_0$0                     uart
     000000DD  _CCAPM3                            uart
     000000DE  G$CCAPM4$0_0$0                     uart
     000000DE  G$CR$0_0$0                         uart
ASxxxx Linker V03.00 + NoICE + sdld,  page 10.
Hexadecimal  [32-Bits]

Area                                    Addr        Size        Decimal Bytes (Attributes)
--------------------------------        ----        ----        ------- ----- ------------
.  .ABS.                            00000000    00000000 =           0. bytes (ABS,CON)

      Value  Global                              Global Defined In Module
      -----  --------------------------------   ------------------------
     000000DE  _CCAPM4                            uart
     000000DE  _CR                                uart
     000000DF  G$CF$0_0$0                         uart
     000000DF  _CF                                uart
     000000E0  G$ACC$0_0$0                        uart
     000000E0  _ACC                               uart
     000000E8  G$P5$0_0$0                         uart
     000000E8  G$P5_0$0_0$0                       uart
     000000E8  _P5                                uart
     000000E8  _P5_0                              uart
     000000E9  G$CL$0_0$0                         uart
     000000E9  G$P5_1$0_0$0                       uart
     000000E9  _CL                                uart
     000000E9  _P5_1                              uart
     000000EA  G$CCAP0L$0_0$0                     uart
     000000EA  G$P5_2$0_0$0                       uart
     000000EA  _CCAP0L                            uart
     000000EA  _P5_2                              uart
     000000EB  G$CCAP1L$0_0$0                     uart
     000000EB  G$P5_3$0_0$0                       uart
     000000EB  _CCAP1L                            uart
     000000EB  _P5_3                              uart
     000000EC  G$CCAP2L$0_0$0                     uart
     000000EC  G$P5_4$0_0$0                       uart
     000000EC  _CCAP2L                            uart
     000000EC  _P5_4                              uart
     000000ED  G$CCAP3L$0_0$0                     uart
     000000ED  G$P5_5$0_0$0                       uart
     000000ED  _CCAP3L                            uart
     000000ED  _P5_5                              uart
     000000EE  G$CCAP4L$0_0$0                     uart
     000000EE  G$P5_6$0_0$0                       uart
     000000EE  _CCAP4L                            uart
     000000EE  _P5_6                              uart
     000000EF  G$P5_7$0_0$0                       uart
     000000EF  _P5_7                              uart
     000000F0  G$B$0_0$0                          uart
     000000F0  G$BREG_F0$0_0$0                    uart
     000000F0  _B                                 uart
     000000F0  _BREG_F0                           uart
     000000F1  G$BREG_F1$0_0$0                    uart
     000000F1  _BREG_F1                           uart
     000000F2  G$BREG_F2$0_0$0                    uart
     000000F2  _BREG_F2                           uart
     000000F3  G$BREG_F3$0_0$0                    uart
     000000F3  _BREG_F3                           uart
     000000F4  G$BREG_F4$0_0$0                    uart
     000000F4  _BREG_F4                           uart
     000000F5  G$BREG_F5$0_0$0                    uart
     000000F5  _BREG_F5                           uart
     000000F5  _B_5                               _gptrget
ASxxxx Linker V03.00 + NoICE + sdld,  page 11.
Hexadecimal  [32-Bits]

Area                                    Addr        Size        Decimal Bytes (Attributes)
--------------------------------        ----        ----        ------- ----- ------------
.  .ABS.                            00000000    00000000 =           0. bytes (ABS,CON)

      Value  Global                              Global Defined In Module
      -----  --------------------------------   ------------------------
     000000F6  G$BREG_F6$0_0$0                    uart
     000000F6  _BREG_F6                           uart
     000000F6  _B_6                               _gptrget
     000000F7  G$BREG_F7$0_0$0                    uart
     000000F7  _BREG_F7                           uart
     000000F7  _B_7                               _gptrget
     000000F9  G$CH$0_0$0                         uart
     000000F9  _CH                                uart
     000000FA  G$CCAP0H$0_0$0                     uart
     000000FA  _CCAP0H                            uart
     000000FB  G$CCAP1H$0_0$0                     uart
     000000FB  _CCAP1H                            uart
     000000FC  G$CCAP2H$0_0$0                     uart
     000000FC  _CCAP2H                            uart
     000000FD  G$CCAP3H$0_0$0                     uart
     000000FD  _CCAP3H                            uart
     000000FE  G$CCAP4H$0_0$0                     uart
     000000FE  _CCAP4H                            uart

ASxxxx Linker V03.00 + NoICE + sdld,  page 12.
Hexadecimal  [32-Bits]

Area                                    Addr        Size        Decimal Bytes (Attributes)
--------------------------------        ----        ----        ------- ----- ------------
BSEG_BYTES                          00000020    00000001 =           1. bytes (REL,CON)

      Value  Global                              Global Defined In Module
      -----  --------------------------------   ------------------------
ASxxxx Linker V03.00 + NoICE + sdld,  page 13.
Hexadecimal  [32-Bits]

Area                                    Addr        Size        Decimal Bytes (Attributes)
--------------------------------        ----        ----        ------- ----- ------------
REG_BANK_0                          00000000    00000008 =           8. bytes (REL,OVR)

      Value  Global                              Global Defined In Module
      -----  --------------------------------   ------------------------
ASxxxx Linker V03.00 + NoICE + sdld,  page 14.
Hexadecimal  [32-Bits]

Area                                    Addr        Size        Decimal Bytes (Attributes)
--------------------------------        ----        ----        ------- ----- ------------
DSEG                                00000000    0000007A =         122. bytes (REL,CON)

      Value  Global                              Global Defined In Module
      -----  --------------------------------   ------------------------
     00000008  Luart.print_hex_number$sloc3$0_1   uart
     0000000A  Luart.print_hex_number$sloc4$0_1   uart
     0000000E  _bp                                _bp
ASxxxx Linker V03.00 + NoICE + sdld,  page 15.
Hexadecimal  [32-Bits]

Area                                    Addr        Size        Decimal Bytes (Attributes)
--------------------------------        ----        ----        ------- ----- ------------
OSEG                                00000019    00000001 =           1. bytes (REL,OVR)

      Value  Global                              Global Defined In Module
      -----  --------------------------------   ------------------------
ASxxxx Linker V03.00 + NoICE + sdld,  page 16.
Hexadecimal  [32-Bits]

Area                                    Addr        Size        Decimal Bytes (Attributes)
--------------------------------        ----        ----        ------- ----- ------------
SSEG                                00000021    000000DF =         223. bytes (REL,OVR)

      Value  Global                              Global Defined In Module
      -----  --------------------------------   ------------------------
     00000021  __start__stack                     main

ASxxxx Linker V03.00 + NoICE + sdld,  page 17.
Hexadecimal  [32-Bits]

Area                                    Addr        Size        Decimal Bytes (Attributes)
--------------------------------        ----        ----        ------- ----- ------------
XSEG                                00000400    000000AC =         172. bytes (REL,CON,XDATA)

      Value  Global                              Global Defined In Module
      -----  --------------------------------   ------------------------
D:   00000400  Lcommand_processing.EEPROM_hexum   command_processing
D:   00000400  _EEPROM_hexump_PARM_2              command_processing
D:   00000402  Lcommand_processing.EEPROM_hexum   command_processing
D:   00000404  Li2c.i2c_sda$value$1_0$33          i2c
D:   00000405  Li2c.i2c_scl$value$1_0$35          i2c
D:   00000406  Li2c.i2c_write_byte$data_byte$1_   i2c
D:   00000407  Li2c.i2c_read_byte$byte_value$1_   i2c
D:   00000408  Li2c.i2c_eeprom_write$data_byte$   i2c
D:   00000408  _i2c_eeprom_write_PARM_2           i2c
D:   00000409  Li2c.i2c_eeprom_write$address$1_   i2c
D:   0000040B  Li2c.i2c_eeprom_write$address_LS   i2c
D:   0000040C  Li2c.i2c_eeprom_read$address$1_0   i2c
D:   0000040E  Li2c.i2c_eeprom_read$address_LSB   i2c
D:   0000040F  Lstring_func.putchar$c$1_0$49      string_func
D:   00000411  Lstring_func.gets_$ch$1_0$51       string_func
D:   00000413  Lstring_func.puts_$ch$1_0$56       string_func
D:   00000415  Lstring_func.my_printf$text_ptr$   string_func
D:   00000417  Luart.int_to_char$num$1_0$68       uart
D:   00000419  Luart.int_to_char$hex_digits$1_0   uart
D:   0000042A  Luart.char_to_int$ch$1_0$71        uart
D:   0000042B  Luart.parse_user_input$base$1_0$   uart
D:   0000042C  Luart.parse_user_input$number$1_   uart
D:   0000042E  Luart.parse_user_input$digits$1_   uart
D:   00000456  Luart.parse_user_input$digit_cou   uart
D:   00000458  Luart.parse_user_input$current_c   uart
D:   0000045A  Luart.print_hex_number$width$1_0   uart
D:   0000045A  _print_hex_number_PARM_2           uart
D:   0000045B  Luart.print_hex_number$num$1_0$8   uart
D:   0000045F  Luart.print_hex_number$ascii_buf   uart
D:   00000469  Luart.print_hex_number$digit_cou   uart
D:   0000046A  Luart.print_colored$color_code$1   uart
D:   0000046A  _print_colored_PARM_2              uart
D:   0000046C  Luart.print_colored$str$1_0$93     uart
D:   0000046F  _strchr_PARM_2                     _strchr
D:   00000473  __mulint_PARM_2                    _mulint
D:   00000475  _vprintf_PARM_2                    vprintf
D:   0000048A  __print_format_PARM_2              printf_large
D:   0000048D  __print_format_PARM_3              printf_large
D:   00000490  __print_format_PARM_4              printf_large
ASxxxx Linker V03.00 + NoICE + sdld,  page 18.
Hexadecimal  [32-Bits]

Area                                    Addr        Size        Decimal Bytes (Attributes)
--------------------------------        ----        ----        ------- ----- ------------
HOME                                00002000    00000006 =           6. bytes (REL,CON,CODE)

      Value  Global                              Global Defined In Module
      -----  --------------------------------   ------------------------
C:   00002000  A$main$724                         main
C:   00002003  A$main$746                         main
C:   00002003  __sdcc_program_startup             main
ASxxxx Linker V03.00 + NoICE + sdld,  page 19.
Hexadecimal  [32-Bits]

Area                                    Addr        Size        Decimal Bytes (Attributes)
--------------------------------        ----        ----        ------- ----- ------------
GSINIT0                             00002006    00000003 =           3. bytes (REL,CON,CODE)

      Value  Global                              Global Defined In Module
      -----  --------------------------------   ------------------------
C:   00002006  __sdcc_gsinit_startup              

ASxxxx Linker V03.00 + NoICE + sdld,  page 20.
Hexadecimal  [32-Bits]

Area                                    Addr        Size        Decimal Bytes (Attributes)
--------------------------------        ----        ----        ------- ----- ------------
GSINIT2                             00002009    0000000A =          10. bytes (REL,CON,CODE)

      Value  Global                              Global Defined In Module
      -----  --------------------------------   ------------------------
ASxxxx Linker V03.00 + NoICE + sdld,  page 21.
Hexadecimal  [32-Bits]

Area                                    Addr        Size        Decimal Bytes (Attributes)
--------------------------------        ----        ----        ------- ----- ------------
GSINIT3                             00002013    00000022 =          34. bytes (REL,CON,CODE)

      Value  Global                              Global Defined In Module
      -----  --------------------------------   ------------------------
C:   00002013  __mcs51_genXINIT                   

ASxxxx Linker V03.00 + NoICE + sdld,  page 22.
Hexadecimal  [32-Bits]

Area                                    Addr        Size        Decimal Bytes (Attributes)
--------------------------------        ----        ----        ------- ----- ------------
GSINIT4                             00002035    0000002A =          42. bytes (REL,CON,CODE)

      Value  Global                              Global Defined In Module
      -----  --------------------------------   ------------------------
C:   00002035  __mcs51_genRAMCLEAR                
C:   0000203B  __mcs51_genXRAMCLEAR               

ASxxxx Linker V03.00 + NoICE + sdld,  page 23.
Hexadecimal  [32-Bits]

Area                                    Addr        Size        Decimal Bytes (Attributes)
--------------------------------        ----        ----        ------- ----- ------------
GSFINAL                             0000205F    00000003 =           3. bytes (REL,CON,CODE)

      Value  Global                              Global Defined In Module
      -----  --------------------------------   ------------------------
C:   0000205F  A$main$739                         main

ASxxxx Linker V03.00 + NoICE + sdld,  page 24.
Hexadecimal  [32-Bits]

Area                                    Addr        Size        Decimal Bytes (Attributes)
--------------------------------        ----        ----        ------- ----- ------------
CSEG                                00002062    00001C05 =        7173. bytes (REL,CON,CODE)

      Value  Global                              Global Defined In Module
      -----  --------------------------------   ------------------------
C:   00002062  A$command_processing$757           command_processing
C:   00002062  C$command_processing.c$45$0_0$95   command_processing
C:   00002062  C$command_processing.c$50$1_0$95   command_processing
C:   00002062  G$handler_wr_to_eeprom$0$0         command_processing
C:   00002062  _handler_wr_to_eeprom              command_processing
C:   00002064  A$command_processing$758           command_processing
C:   00002066  A$command_processing$759           command_processing
C:   00002068  A$command_processing$760           command_processing
C:   0000206A  A$command_processing$761           command_processing
C:   0000206D  A$command_processing$762           command_processing
C:   0000206F  A$command_processing$763           command_processing
C:   00002071  A$command_processing$766           command_processing
C:   00002071  C$command_processing.c$52$1_0$95   command_processing
C:   00002073  A$command_processing$767           command_processing
C:   00002075  A$command_processing$768           command_processing
C:   00002077  A$command_processing$769           command_processing
C:   00002079  A$command_processing$770           command_processing
C:   0000207C  A$command_processing$771           command_processing
C:   0000207E  A$command_processing$772           command_processing
C:   00002080  A$command_processing$775           command_processing
C:   00002080  C$command_processing.c$53$1_0$95   command_processing
C:   00002083  A$command_processing$776           command_processing
C:   00002086  A$command_processing$777           command_processing
C:   00002088  A$command_processing$778           command_processing
C:   0000208A  A$command_processing$781           command_processing
C:   0000208A  C$command_processing.c$56$1_0$95   command_processing
C:   0000208C  A$command_processing$782           command_processing
C:   0000208E  A$command_processing$783           command_processing
C:   0000208F  A$command_processing$784           command_processing
C:   00002091  A$command_processing$785           command_processing
C:   00002092  A$command_processing$786           command_processing
C:   00002093  A$command_processing$787           command_processing
C:   00002094  A$command_processing$788           command_processing
C:   00002096  A$command_processing$791           command_processing
C:   00002096  C$command_processing.c$61$2_0$97   command_processing
C:   00002098  A$command_processing$792           command_processing
C:   0000209A  A$command_processing$793           command_processing
C:   0000209C  A$command_processing$794           command_processing
C:   0000209E  A$command_processing$795           command_processing
C:   000020A0  A$command_processing$796           command_processing
C:   000020A2  A$command_processing$797           command_processing
C:   000020A5  A$command_processing$798           command_processing
C:   000020A7  A$command_processing$799           command_processing
C:   000020A9  A$command_processing$800           command_processing
C:   000020AB  A$command_processing$803           command_processing
C:   000020AB  C$command_processing.c$62$2_0$97   command_processing
C:   000020AE  A$command_processing$807           command_processing
C:   000020AE  C$command_processing.c$65$1_0$95   command_processing
C:   000020B0  A$command_processing$808           command_processing
C:   000020B2  A$command_processing$809           command_processing
ASxxxx Linker V03.00 + NoICE + sdld,  page 25.
Hexadecimal  [32-Bits]

Area                                    Addr        Size        Decimal Bytes (Attributes)
--------------------------------        ----        ----        ------- ----- ------------
CSEG                                00002062    00001C05 =        7173. bytes (REL,CON,CODE)

      Value  Global                              Global Defined In Module
      -----  --------------------------------   ------------------------
C:   000020B4  A$command_processing$810           command_processing
C:   000020B6  A$command_processing$811           command_processing
C:   000020B8  A$command_processing$812           command_processing
C:   000020BA  A$command_processing$813           command_processing
C:   000020BC  A$command_processing$814           command_processing
C:   000020BE  A$command_processing$815           command_processing
C:   000020C1  A$command_processing$816           command_processing
C:   000020C3  A$command_processing$817           command_processing
C:   000020C5  A$command_processing$818           command_processing
C:   000020C7  A$command_processing$821           command_processing
C:   000020C7  C$command_processing.c$67$1_0$95   command_processing
C:   000020C9  A$command_processing$822           command_processing
C:   000020CB  A$command_processing$823           command_processing
C:   000020CD  A$command_processing$824           command_processing
C:   000020CF  A$command_processing$825           command_processing
C:   000020D2  A$command_processing$826           command_processing
C:   000020D4  A$command_processing$827           command_processing
C:   000020D6  A$command_processing$830           command_processing
C:   000020D6  C$command_processing.c$68$1_0$95   command_processing
C:   000020D9  A$command_processing$831           command_processing
C:   000020DC  A$command_processing$832           command_processing
C:   000020DE  A$command_processing$833           command_processing
C:   000020E0  A$command_processing$834           command_processing
C:   000020E2  A$command_processing$835           command_processing
C:   000020E4  A$command_processing$838           command_processing
C:   000020E4  C$command_processing.c$70$1_0$95   command_processing
C:   000020E6  A$command_processing$839           command_processing
C:   000020E8  A$command_processing$840           command_processing
C:   000020E9  A$command_processing$841           command_processing
C:   000020EB  A$command_processing$842           command_processing
C:   000020EC  A$command_processing$843           command_processing
C:   000020EE  A$command_processing$844           command_processing
C:   000020EF  A$command_processing$845           command_processing
C:   000020F1  A$command_processing$848           command_processing
C:   000020F1  C$command_processing.c$76$2_0$99   command_processing
C:   000020F3  A$command_processing$849           command_processing
C:   000020F5  A$command_processing$850           command_processing
C:   000020F7  A$command_processing$851           command_processing
C:   000020F9  A$command_processing$852           command_processing
C:   000020FB  A$command_processing$853           command_processing
C:   000020FD  A$command_processing$854           command_processing
C:   00002100  A$command_processing$855           command_processing
C:   00002102  A$command_processing$856           command_processing
C:   00002104  A$command_processing$857           command_processing
C:   00002106  A$command_processing$860           command_processing
C:   00002106  C$command_processing.c$77$2_0$99   command_processing
C:   00002108  A$command_processing$864           command_processing
C:   00002108  C$command_processing.c$79$1_0$95   command_processing
C:   0000210A  A$command_processing$865           command_processing
C:   0000210C  A$command_processing$866           command_processing
C:   0000210E  A$command_processing$867           command_processing
ASxxxx Linker V03.00 + NoICE + sdld,  page 26.
Hexadecimal  [32-Bits]

Area                                    Addr        Size        Decimal Bytes (Attributes)
--------------------------------        ----        ----        ------- ----- ------------
CSEG                                00002062    00001C05 =        7173. bytes (REL,CON,CODE)

      Value  Global                              Global Defined In Module
      -----  --------------------------------   ------------------------
C:   00002110  A$command_processing$868           command_processing
C:   00002112  A$command_processing$869           command_processing
C:   00002114  A$command_processing$870           command_processing
C:   00002116  A$command_processing$871           command_processing
C:   00002118  A$command_processing$872           command_processing
C:   0000211A  A$command_processing$873           command_processing
C:   0000211C  A$command_processing$874           command_processing
C:   0000211F  A$command_processing$875           command_processing
C:   00002121  A$command_processing$876           command_processing
C:   00002123  A$command_processing$877           command_processing
C:   00002125  A$command_processing$878           command_processing
C:   00002127  A$command_processing$879           command_processing
C:   00002129  A$command_processing$880           command_processing
C:   0000212B  A$command_processing$881           command_processing
C:   0000212D  A$command_processing$884           command_processing
C:   0000212D  C$command_processing.c$81$1_0$95   command_processing
C:   00002130  A$command_processing$885           command_processing
C:   00002131  A$command_processing$886           command_processing
C:   00002132  A$command_processing$887           command_processing
C:   00002134  A$command_processing$888           command_processing
C:   00002136  A$command_processing$889           command_processing
C:   00002139  A$command_processing$892           command_processing
C:   00002139  C$command_processing.c$82$1_0$95   command_processing
C:   0000213B  A$command_processing$893           command_processing
C:   0000213D  A$command_processing$894           command_processing
C:   0000213F  A$command_processing$895           command_processing
C:   00002141  A$command_processing$896           command_processing
C:   00002144  A$command_processing$897           command_processing
C:   00002146  A$command_processing$898           command_processing
C:   00002148  A$command_processing$904           command_processing
C:   00002148  C$command_processing.c$84$1_0$95   command_processing
C:   00002148  XG$handler_wr_to_eeprom$0$0        command_processing
C:   00002149  A$command_processing$920           command_processing
C:   00002149  C$command_processing.c$86$1_0$10   command_processing
C:   00002149  C$command_processing.c$90$1_0$10   command_processing
C:   00002149  G$handler_rd_to_eeprom$0$0         command_processing
C:   00002149  _handler_rd_to_eeprom              command_processing
C:   0000214B  A$command_processing$921           command_processing
C:   0000214D  A$command_processing$922           command_processing
C:   0000214F  A$command_processing$923           command_processing
C:   00002151  A$command_processing$924           command_processing
C:   00002154  A$command_processing$925           command_processing
C:   00002156  A$command_processing$926           command_processing
C:   00002158  A$command_processing$929           command_processing
C:   00002158  C$command_processing.c$92$1_0$10   command_processing
C:   0000215A  A$command_processing$930           command_processing
C:   0000215C  A$command_processing$931           command_processing
C:   0000215E  A$command_processing$932           command_processing
C:   00002160  A$command_processing$933           command_processing
C:   00002163  A$command_processing$934           command_processing
C:   00002165  A$command_processing$935           command_processing
ASxxxx Linker V03.00 + NoICE + sdld,  page 27.
Hexadecimal  [32-Bits]

Area                                    Addr        Size        Decimal Bytes (Attributes)
--------------------------------        ----        ----        ------- ----- ------------
CSEG                                00002062    00001C05 =        7173. bytes (REL,CON,CODE)

      Value  Global                              Global Defined In Module
      -----  --------------------------------   ------------------------
C:   00002167  A$command_processing$938           command_processing
C:   00002167  C$command_processing.c$93$1_0$10   command_processing
C:   0000216A  A$command_processing$939           command_processing
C:   0000216D  A$command_processing$940           command_processing
C:   0000216F  A$command_processing$941           command_processing
C:   00002171  A$command_processing$944           command_processing
C:   00002171  C$command_processing.c$94$1_0$10   command_processing
C:   00002173  A$command_processing$945           command_processing
C:   00002175  A$command_processing$946           command_processing
C:   00002176  A$command_processing$947           command_processing
C:   00002178  A$command_processing$948           command_processing
C:   00002179  A$command_processing$949           command_processing
C:   0000217B  A$command_processing$950           command_processing
C:   0000217C  A$command_processing$951           command_processing
C:   0000217E  A$command_processing$954           command_processing
C:   0000217E  C$command_processing.c$100$2_0$1   command_processing
C:   00002180  A$command_processing$955           command_processing
C:   00002182  A$command_processing$956           command_processing
C:   00002184  A$command_processing$957           command_processing
C:   00002186  A$command_processing$958           command_processing
C:   00002188  A$command_processing$959           command_processing
C:   0000218A  A$command_processing$960           command_processing
C:   0000218D  A$command_processing$961           command_processing
C:   0000218F  A$command_processing$962           command_processing
C:   00002191  A$command_processing$963           command_processing
C:   00002193  A$command_processing$966           command_processing
C:   00002193  C$command_processing.c$101$2_0$1   command_processing
C:   00002195  A$command_processing$970           command_processing
C:   00002195  C$command_processing.c$103$1_0$1   command_processing
C:   00002197  A$command_processing$971           command_processing
C:   00002199  A$command_processing$972           command_processing
C:   0000219B  A$command_processing$973           command_processing
C:   0000219D  A$command_processing$974           command_processing
C:   0000219F  A$command_processing$975           command_processing
C:   000021A1  A$command_processing$976           command_processing
C:   000021A3  A$command_processing$977           command_processing
C:   000021A5  A$command_processing$978           command_processing
C:   000021A8  A$command_processing$979           command_processing
C:   000021AA  A$command_processing$980           command_processing
C:   000021AC  A$command_processing$981           command_processing
C:   000021AE  A$command_processing$982           command_processing
C:   000021B0  A$command_processing$983           command_processing
C:   000021B2  A$command_processing$986           command_processing
C:   000021B2  C$command_processing.c$105$1_0$1   command_processing
C:   000021B4  A$command_processing$987           command_processing
C:   000021B6  A$command_processing$988           command_processing
C:   000021B8  A$command_processing$989           command_processing
C:   000021BA  A$command_processing$990           command_processing
C:   000021BD  A$command_processing$991           command_processing
C:   000021BF  A$command_processing$994           command_processing
C:   000021BF  C$command_processing.c$106$1_0$1   command_processing
ASxxxx Linker V03.00 + NoICE + sdld,  page 28.
Hexadecimal  [32-Bits]

Area                                    Addr        Size        Decimal Bytes (Attributes)
--------------------------------        ----        ----        ------- ----- ------------
CSEG                                00002062    00001C05 =        7173. bytes (REL,CON,CODE)

      Value  Global                              Global Defined In Module
      -----  --------------------------------   ------------------------
C:   000021C1  A$command_processing$995           command_processing
C:   000021C3  A$command_processing$996           command_processing
C:   000021C5  A$command_processing$997           command_processing
C:   000021C7  A$command_processing$998           command_processing
C:   000021C9  A$command_processing$999           command_processing
C:   000021CC  A$command_processing$1000          command_processing
C:   000021CE  A$command_processing$1001          command_processing
C:   000021D0  A$command_processing$1002          command_processing
C:   000021D2  A$command_processing$1003          command_processing
C:   000021D4  A$command_processing$1004          command_processing
C:   000021D6  A$command_processing$1007          command_processing
C:   000021D6  C$command_processing.c$107$1_0$1   command_processing
C:   000021D8  A$command_processing$1008          command_processing
C:   000021DA  A$command_processing$1009          command_processing
C:   000021DC  A$command_processing$1010          command_processing
C:   000021DE  A$command_processing$1011          command_processing
C:   000021E0  A$command_processing$1012          command_processing
C:   000021E2  A$command_processing$1013          command_processing
C:   000021E4  A$command_processing$1014          command_processing
C:   000021E6  A$command_processing$1015          command_processing
C:   000021E8  A$command_processing$1016          command_processing
C:   000021EA  A$command_processing$1017          command_processing
C:   000021EC  A$command_processing$1018          command_processing
C:   000021EF  A$command_processing$1019          command_processing
C:   000021F1  A$command_processing$1020          command_processing
C:   000021F3  A$command_processing$1021          command_processing
C:   000021F5  A$command_processing$1027          command_processing
C:   000021F5  C$command_processing.c$109$1_0$1   command_processing
C:   000021F5  XG$handler_rd_to_eeprom$0$0        command_processing
C:   000021F6  A$command_processing$1046          command_processing
C:   000021F6  C$command_processing.c$112$1_0$1   command_processing
C:   000021F6  G$EEPROM_hexump$0$0                command_processing
C:   000021F6  _EEPROM_hexump                     command_processing
C:   000021F8  A$command_processing$1047          command_processing
C:   000021FA  A$command_processing$1048          command_processing
C:   000021FD  A$command_processing$1049          command_processing
C:   000021FE  A$command_processing$1050          command_processing
C:   000021FF  A$command_processing$1051          command_processing
C:   00002200  A$command_processing$1052          command_processing
C:   00002201  A$command_processing$1055          command_processing
C:   00002201  C$command_processing.c$114$1_0$1   command_processing
C:   00002203  A$command_processing$1056          command_processing
C:   00002205  A$command_processing$1057          command_processing
C:   00002207  A$command_processing$1058          command_processing
C:   00002209  A$command_processing$1059          command_processing
C:   0000220C  A$command_processing$1060          command_processing
C:   0000220E  A$command_processing$1061          command_processing
C:   00002210  A$command_processing$1064          command_processing
C:   00002210  C$command_processing.c$117$2_0$1   command_processing
C:   00002213  A$command_processing$1065          command_processing
C:   00002214  A$command_processing$1066          command_processing
ASxxxx Linker V03.00 + NoICE + sdld,  page 29.
Hexadecimal  [32-Bits]

Area                                    Addr        Size        Decimal Bytes (Attributes)
--------------------------------        ----        ----        ------- ----- ------------
CSEG                                00002062    00001C05 =        7173. bytes (REL,CON,CODE)

      Value  Global                              Global Defined In Module
      -----  --------------------------------   ------------------------
C:   00002215  A$command_processing$1067          command_processing
C:   00002216  A$command_processing$1068          command_processing
C:   00002217  A$command_processing$1069          command_processing
C:   00002218  A$command_processing$1072          command_processing
C:   00002218  C$command_processing.c$119$1_1$1   command_processing
C:   0000221B  A$command_processing$1073          command_processing
C:   0000221C  A$command_processing$1074          command_processing
C:   0000221D  A$command_processing$1075          command_processing
C:   0000221E  A$command_processing$1076          command_processing
C:   0000221F  A$command_processing$1077          command_processing
C:   00002220  A$command_processing$1078          command_processing
C:   00002222  A$command_processing$1080          command_processing
C:   00002223  A$command_processing$1081          command_processing
C:   00002224  A$command_processing$1082          command_processing
C:   00002225  A$command_processing$1083          command_processing
C:   00002226  A$command_processing$1084          command_processing
C:   00002227  A$command_processing$1085          command_processing
C:   00002229  A$command_processing$1086          command_processing
C:   0000222C  A$command_processing$1090          command_processing
C:   0000222C  C$command_processing.c$120$2_1$1   command_processing
C:   0000222D  A$command_processing$1091          command_processing
C:   0000222F  A$command_processing$1092          command_processing
C:   00002231  A$command_processing$1095          command_processing
C:   00002231  C$command_processing.c$121$1_1$1   command_processing
C:   00002233  A$command_processing$1096          command_processing
C:   00002235  A$command_processing$1097          command_processing
C:   00002238  A$command_processing$1098          command_processing
C:   0000223A  A$command_processing$1099          command_processing
C:   0000223C  A$command_processing$1100          command_processing
C:   0000223E  A$command_processing$1101          command_processing
C:   00002240  A$command_processing$1102          command_processing
C:   00002242  A$command_processing$1103          command_processing
C:   00002245  A$command_processing$1106          command_processing
C:   00002245  C$command_processing.c$122$3_1$1   command_processing
C:   00002248  A$command_processing$1107          command_processing
C:   0000224B  A$command_processing$1108          command_processing
C:   0000224D  A$command_processing$1109          command_processing
C:   0000224F  A$command_processing$1110          command_processing
C:   00002251  A$command_processing$1111          command_processing
C:   00002253  A$command_processing$1112          command_processing
C:   00002255  A$command_processing$1115          command_processing
C:   00002255  C$command_processing.c$123$3_1$1   command_processing
C:   00002257  A$command_processing$1116          command_processing
C:   00002259  A$command_processing$1117          command_processing
C:   0000225B  A$command_processing$1118          command_processing
C:   0000225D  A$command_processing$1119          command_processing
C:   00002260  A$command_processing$1120          command_processing
C:   00002262  A$command_processing$1121          command_processing
C:   00002263  A$command_processing$1122          command_processing
C:   00002265  A$command_processing$1123          command_processing
C:   00002267  A$command_processing$1124          command_processing
ASxxxx Linker V03.00 + NoICE + sdld,  page 30.
Hexadecimal  [32-Bits]

Area                                    Addr        Size        Decimal Bytes (Attributes)
--------------------------------        ----        ----        ------- ----- ------------
CSEG                                00002062    00001C05 =        7173. bytes (REL,CON,CODE)

      Value  Global                              Global Defined In Module
      -----  --------------------------------   ------------------------
C:   00002269  A$command_processing$1125          command_processing
C:   0000226A  A$command_processing$1126          command_processing
C:   0000226C  A$command_processing$1127          command_processing
C:   0000226E  A$command_processing$1128          command_processing
C:   00002270  A$command_processing$1129          command_processing
C:   00002272  A$command_processing$1130          command_processing
C:   00002274  A$command_processing$1131          command_processing
C:   00002277  A$command_processing$1134          command_processing
C:   00002277  C$command_processing.c$124$3_1$1   command_processing
C:   0000227A  A$command_processing$1135          command_processing
C:   0000227D  A$command_processing$1136          command_processing
C:   0000227F  A$command_processing$1137          command_processing
C:   00002281  A$command_processing$1138          command_processing
C:   00002283  A$command_processing$1139          command_processing
C:   00002285  A$command_processing$1140          command_processing
C:   00002287  A$command_processing$1143          command_processing
C:   00002287  C$command_processing.c$134$1_1$1   command_processing
C:   00002289  A$command_processing$1144          command_processing
C:   0000228B  A$command_processing$1150          command_processing
C:   0000228B  C$command_processing.c$124$2_1$1   command_processing
C:   0000228B  C$command_processing.c$126$1_1$1   command_processing
C:   0000228D  A$command_processing$1151          command_processing
C:   0000228F  A$command_processing$1152          command_processing
C:   00002292  A$command_processing$1153          command_processing
C:   00002294  A$command_processing$1154          command_processing
C:   00002296  A$command_processing$1155          command_processing
C:   00002298  A$command_processing$1156          command_processing
C:   0000229A  A$command_processing$1157          command_processing
C:   0000229C  A$command_processing$1158          command_processing
C:   0000229F  A$command_processing$1159          command_processing
C:   000022A1  A$command_processing$1160          command_processing
C:   000022A3  A$command_processing$1161          command_processing
C:   000022A5  A$command_processing$1162          command_processing
C:   000022A7  A$command_processing$1163          command_processing
C:   000022A9  A$command_processing$1166          command_processing
C:   000022A9  C$command_processing.c$127$2_1$1   command_processing
C:   000022AB  A$command_processing$1167          command_processing
C:   000022AD  A$command_processing$1168          command_processing
C:   000022AF  A$command_processing$1169          command_processing
C:   000022B1  A$command_processing$1170          command_processing
C:   000022B3  A$command_processing$1171          command_processing
C:   000022B5  A$command_processing$1172          command_processing
C:   000022B7  A$command_processing$1173          command_processing
C:   000022BA  A$command_processing$1174          command_processing
C:   000022BC  A$command_processing$1175          command_processing
C:   000022BE  A$command_processing$1176          command_processing
C:   000022C0  A$command_processing$1177          command_processing
C:   000022C2  A$command_processing$1180          command_processing
C:   000022C2  C$command_processing.c$128$2_1$1   command_processing
C:   000022C4  A$command_processing$1181          command_processing
C:   000022C6  A$command_processing$1182          command_processing
ASxxxx Linker V03.00 + NoICE + sdld,  page 31.
Hexadecimal  [32-Bits]

Area                                    Addr        Size        Decimal Bytes (Attributes)
--------------------------------        ----        ----        ------- ----- ------------
CSEG                                00002062    00001C05 =        7173. bytes (REL,CON,CODE)

      Value  Global                              Global Defined In Module
      -----  --------------------------------   ------------------------
C:   000022C8  A$command_processing$1183          command_processing
C:   000022CA  A$command_processing$1184          command_processing
C:   000022CD  A$command_processing$1185          command_processing
C:   000022CF  A$command_processing$1186          command_processing
C:   000022D0  A$command_processing$1187          command_processing
C:   000022D2  A$command_processing$1188          command_processing
C:   000022D4  A$command_processing$1189          command_processing
C:   000022D6  A$command_processing$1190          command_processing
C:   000022D7  A$command_processing$1191          command_processing
C:   000022D9  A$command_processing$1192          command_processing
C:   000022DB  A$command_processing$1193          command_processing
C:   000022DD  A$command_processing$1194          command_processing
C:   000022E0  A$command_processing$1195          command_processing
C:   000022E2  A$command_processing$1196          command_processing
C:   000022E4  A$command_processing$1197          command_processing
C:   000022E6  A$command_processing$1198          command_processing
C:   000022E8  A$command_processing$1199          command_processing
C:   000022EA  A$command_processing$1202          command_processing
C:   000022EA  C$command_processing.c$130$2_1$1   command_processing
C:   000022EB  A$command_processing$1203          command_processing
C:   000022EE  A$command_processing$1204          command_processing
C:   000022EF  A$command_processing$1208          command_processing
C:   000022EF  C$command_processing.c$131$2_1$1   command_processing
C:   000022F0  A$command_processing$1209          command_processing
C:   000022F2  A$command_processing$1210          command_processing
C:   000022F4  A$command_processing$1211          command_processing
C:   000022F7  A$command_processing$1215          command_processing
C:   000022F7  C$command_processing.c$133$1_1$1   command_processing
C:   000022F9  A$command_processing$1216          command_processing
C:   000022FB  A$command_processing$1217          command_processing
C:   000022FD  A$command_processing$1218          command_processing
C:   000022FF  A$command_processing$1219          command_processing
C:   00002301  A$command_processing$1220          command_processing
C:   00002303  A$command_processing$1221          command_processing
C:   00002306  A$command_processing$1222          command_processing
C:   00002308  A$command_processing$1223          command_processing
C:   0000230A  A$command_processing$1224          command_processing
C:   0000230C  A$command_processing$1231          command_processing
C:   0000230C  C$command_processing.c$134$1_1$1   command_processing
C:   0000230C  C$command_processing.c$135$1_1$1   command_processing
C:   0000230C  XG$EEPROM_hexump$0$0               command_processing
C:   0000230D  A$command_processing$1247          command_processing
C:   0000230D  C$command_processing.c$138$1_1$1   command_processing
C:   0000230D  C$command_processing.c$141$1_0$1   command_processing
C:   0000230D  G$handler_EEPROM_hexdump$0$0       command_processing
C:   0000230D  _handler_EEPROM_hexdump            command_processing
C:   0000230F  A$command_processing$1248          command_processing
C:   00002311  A$command_processing$1249          command_processing
C:   00002313  A$command_processing$1250          command_processing
C:   00002315  A$command_processing$1251          command_processing
C:   00002318  A$command_processing$1252          command_processing
ASxxxx Linker V03.00 + NoICE + sdld,  page 32.
Hexadecimal  [32-Bits]

Area                                    Addr        Size        Decimal Bytes (Attributes)
--------------------------------        ----        ----        ------- ----- ------------
CSEG                                00002062    00001C05 =        7173. bytes (REL,CON,CODE)

      Value  Global                              Global Defined In Module
      -----  --------------------------------   ------------------------
C:   0000231A  A$command_processing$1253          command_processing
C:   0000231C  A$command_processing$1256          command_processing
C:   0000231C  C$command_processing.c$142$1_0$1   command_processing
C:   0000231F  A$command_processing$1257          command_processing
C:   00002322  A$command_processing$1258          command_processing
C:   00002324  A$command_processing$1259          command_processing
C:   00002326  A$command_processing$1262          command_processing
C:   00002326  C$command_processing.c$144$1_0$1   command_processing
C:   00002328  A$command_processing$1263          command_processing
C:   0000232A  A$command_processing$1264          command_processing
C:   0000232B  A$command_processing$1265          command_processing
C:   0000232D  A$command_processing$1266          command_processing
C:   0000232E  A$command_processing$1267          command_processing
C:   00002330  A$command_processing$1268          command_processing
C:   00002331  A$command_processing$1269          command_processing
C:   00002333  A$command_processing$1272          command_processing
C:   00002333  C$command_processing.c$149$2_0$1   command_processing
C:   00002335  A$command_processing$1273          command_processing
C:   00002337  A$command_processing$1274          command_processing
C:   00002339  A$command_processing$1275          command_processing
C:   0000233B  A$command_processing$1276          command_processing
C:   0000233D  A$command_processing$1277          command_processing
C:   0000233F  A$command_processing$1278          command_processing
C:   00002342  A$command_processing$1279          command_processing
C:   00002344  A$command_processing$1280          command_processing
C:   00002346  A$command_processing$1281          command_processing
C:   00002348  A$command_processing$1284          command_processing
C:   00002348  C$command_processing.c$150$2_0$1   command_processing
C:   0000234A  A$command_processing$1288          command_processing
C:   0000234A  C$command_processing.c$155$1_1$1   command_processing
C:   0000234C  A$command_processing$1289          command_processing
C:   0000234E  A$command_processing$1290          command_processing
C:   00002350  A$command_processing$1291          command_processing
C:   00002352  A$command_processing$1292          command_processing
C:   00002354  A$command_processing$1293          command_processing
C:   00002356  A$command_processing$1294          command_processing
C:   00002359  A$command_processing$1295          command_processing
C:   0000235B  A$command_processing$1296          command_processing
C:   0000235D  A$command_processing$1299          command_processing
C:   0000235D  C$command_processing.c$156$1_1$1   command_processing
C:   00002360  A$command_processing$1300          command_processing
C:   00002363  A$command_processing$1301          command_processing
C:   00002365  A$command_processing$1302          command_processing
C:   00002367  A$command_processing$1303          command_processing
C:   00002369  A$command_processing$1304          command_processing
C:   0000236B  A$command_processing$1307          command_processing
C:   0000236B  C$command_processing.c$158$1_1$1   command_processing
C:   0000236D  A$command_processing$1308          command_processing
C:   0000236F  A$command_processing$1309          command_processing
C:   00002370  A$command_processing$1310          command_processing
C:   00002372  A$command_processing$1311          command_processing
ASxxxx Linker V03.00 + NoICE + sdld,  page 33.
Hexadecimal  [32-Bits]

Area                                    Addr        Size        Decimal Bytes (Attributes)
--------------------------------        ----        ----        ------- ----- ------------
CSEG                                00002062    00001C05 =        7173. bytes (REL,CON,CODE)

      Value  Global                              Global Defined In Module
      -----  --------------------------------   ------------------------
C:   00002373  A$command_processing$1312          command_processing
C:   00002375  A$command_processing$1313          command_processing
C:   00002376  A$command_processing$1314          command_processing
C:   00002378  A$command_processing$1317          command_processing
C:   00002378  C$command_processing.c$163$2_1$1   command_processing
C:   0000237A  A$command_processing$1318          command_processing
C:   0000237C  A$command_processing$1319          command_processing
C:   0000237E  A$command_processing$1320          command_processing
C:   00002380  A$command_processing$1321          command_processing
C:   00002382  A$command_processing$1322          command_processing
C:   00002384  A$command_processing$1323          command_processing
C:   00002387  A$command_processing$1324          command_processing
C:   00002389  A$command_processing$1325          command_processing
C:   0000238B  A$command_processing$1326          command_processing
C:   0000238D  A$command_processing$1329          command_processing
C:   0000238D  C$command_processing.c$164$2_1$1   command_processing
C:   0000238F  A$command_processing$1333          command_processing
C:   0000238F  C$command_processing.c$167$1_1$1   command_processing
C:   00002392  A$command_processing$1334          command_processing
C:   00002393  A$command_processing$1335          command_processing
C:   00002394  A$command_processing$1336          command_processing
C:   00002395  A$command_processing$1337          command_processing
C:   00002396  A$command_processing$1338          command_processing
C:   00002397  A$command_processing$1339          command_processing
C:   00002399  A$command_processing$1340          command_processing
C:   0000239B  A$command_processing$1341          command_processing
C:   0000239E  A$command_processing$1347          command_processing
C:   0000239E  C$command_processing.c$168$1_1$1   command_processing
C:   0000239E  XG$handler_EEPROM_hexdump$0$0      command_processing
C:   0000239F  A$command_processing$1363          command_processing
C:   0000239F  C$command_processing.c$170$1_1$1   command_processing
C:   0000239F  C$command_processing.c$173$1_0$1   command_processing
C:   0000239F  G$fill_EEPROM_with_ff$0$0          command_processing
C:   0000239F  _fill_EEPROM_with_ff               command_processing
C:   000023A1  A$command_processing$1364          command_processing
C:   000023A3  A$command_processing$1365          command_processing
C:   000023A5  A$command_processing$1366          command_processing
C:   000023A7  A$command_processing$1367          command_processing
C:   000023AA  A$command_processing$1368          command_processing
C:   000023AC  A$command_processing$1369          command_processing
C:   000023AE  A$command_processing$1372          command_processing
C:   000023AE  C$command_processing.c$175$1_0$1   command_processing
C:   000023B0  A$command_processing$1373          command_processing
C:   000023B2  A$command_processing$1377          command_processing
C:   000023B2  C$command_processing.c$178$1_0$1   command_processing
C:   000023B4  A$command_processing$1378          command_processing
C:   000023B6  A$command_processing$1380          command_processing
C:   000023B7  A$command_processing$1381          command_processing
C:   000023B8  A$command_processing$1382          command_processing
C:   000023BA  A$command_processing$1383          command_processing
C:   000023BB  A$command_processing$1384          command_processing
ASxxxx Linker V03.00 + NoICE + sdld,  page 34.
Hexadecimal  [32-Bits]

Area                                    Addr        Size        Decimal Bytes (Attributes)
--------------------------------        ----        ----        ------- ----- ------------
CSEG                                00002062    00001C05 =        7173. bytes (REL,CON,CODE)

      Value  Global                              Global Defined In Module
      -----  --------------------------------   ------------------------
C:   000023BD  A$command_processing$1385          command_processing
C:   000023BF  A$command_processing$1386          command_processing
C:   000023C1  A$command_processing$1387          command_processing
C:   000023C2  A$command_processing$1388          command_processing
C:   000023C5  A$command_processing$1389          command_processing
C:   000023C6  A$command_processing$1390          command_processing
C:   000023C8  A$command_processing$1394          command_processing
C:   000023C8  C$command_processing.c$179$3_0$1   command_processing
C:   000023CB  A$command_processing$1395          command_processing
C:   000023CD  A$command_processing$1396          command_processing
C:   000023CE  A$command_processing$1397          command_processing
C:   000023D0  A$command_processing$1398          command_processing
C:   000023D2  A$command_processing$1399          command_processing
C:   000023D4  A$command_processing$1400          command_processing
C:   000023D6  A$command_processing$1401          command_processing
C:   000023D9  A$command_processing$1402          command_processing
C:   000023DB  A$command_processing$1403          command_processing
C:   000023DD  A$command_processing$1406          command_processing
C:   000023DD  C$command_processing.c$175$2_0$1   command_processing
C:   000023DE  A$command_processing$1407          command_processing
C:   000023E1  A$command_processing$1408          command_processing
C:   000023E2  A$command_processing$1410          command_processing
C:   000023E4  A$command_processing$1411          command_processing
C:   000023E6  A$command_processing$1412          command_processing
C:   000023E7  A$command_processing$1413          command_processing
C:   000023E9  A$command_processing$1414          command_processing
C:   000023EA  A$command_processing$1415          command_processing
C:   000023EC  A$command_processing$1416          command_processing
C:   000023ED  A$command_processing$1417          command_processing
C:   000023EF  A$command_processing$1420          command_processing
C:   000023EF  C$command_processing.c$181$1_0$1   command_processing
C:   000023F1  A$command_processing$1421          command_processing
C:   000023F3  A$command_processing$1422          command_processing
C:   000023F5  A$command_processing$1423          command_processing
C:   000023F7  A$command_processing$1424          command_processing
C:   000023FA  A$command_processing$1425          command_processing
C:   000023FC  A$command_processing$1426          command_processing
C:   000023FE  A$command_processing$1431          command_processing
C:   000023FE  C$command_processing.c$183$1_0$1   command_processing
C:   000023FE  XG$fill_EEPROM_with_ff$0$0         command_processing
C:   000023FF  A$i2c$769                          i2c
C:   000023FF  C$i2c.c$25$0_0$32                  i2c
C:   000023FF  C$i2c.c$28$1_0$32                  i2c
C:   000023FF  Fcommand_processing$__str_1$0_0$   command_processing
C:   000023FF  Fcommand_processing$__str_10$0_0   command_processing
C:   000023FF  Fcommand_processing$__str_11$0_0   command_processing
C:   000023FF  Fcommand_processing$__str_12$0_0   command_processing
C:   000023FF  Fcommand_processing$__str_13$0_0   command_processing
C:   000023FF  Fcommand_processing$__str_14$0_0   command_processing
C:   000023FF  Fcommand_processing$__str_15$0_0   command_processing
C:   000023FF  Fcommand_processing$__str_16$0_0   command_processing
ASxxxx Linker V03.00 + NoICE + sdld,  page 35.
Hexadecimal  [32-Bits]

Area                                    Addr        Size        Decimal Bytes (Attributes)
--------------------------------        ----        ----        ------- ----- ------------
CSEG                                00002062    00001C05 =        7173. bytes (REL,CON,CODE)

      Value  Global                              Global Defined In Module
      -----  --------------------------------   ------------------------
C:   000023FF  Fcommand_processing$__str_17$0_0   command_processing
C:   000023FF  Fcommand_processing$__str_18$0_0   command_processing
C:   000023FF  Fcommand_processing$__str_2$0_0$   command_processing
C:   000023FF  Fcommand_processing$__str_3$0_0$   command_processing
C:   000023FF  Fcommand_processing$__str_4$0_0$   command_processing
C:   000023FF  Fcommand_processing$__str_5$0_0$   command_processing
C:   000023FF  Fcommand_processing$__str_6$0_0$   command_processing
C:   000023FF  Fcommand_processing$__str_7$0_0$   command_processing
C:   000023FF  Fcommand_processing$__str_8$0_0$   command_processing
C:   000023FF  Fcommand_processing$__str_9$0_0$   command_processing
C:   000023FF  G$i2c_clock_tick$0$0               i2c
C:   000023FF  _i2c_clock_tick                    i2c
C:   00002402  A$i2c$770                          i2c
C:   00002405  A$i2c$773                          i2c
C:   00002405  C$i2c.c$30$1_0$32                  i2c
C:   00002408  A$i2c$774                          i2c
C:   0000240B  A$i2c$781                          i2c
C:   0000240B  C$i2c.c$31$1_0$32                  i2c
C:   0000240B  C$i2c.c$32$1_0$32                  i2c
C:   0000240B  XG$i2c_clock_tick$0$0              i2c
C:   0000240C  A$i2c$794                          i2c
C:   0000240C  C$i2c.c$34$1_0$34                  i2c
C:   0000240C  G$i2c_sda$0$0                      i2c
C:   0000240C  _i2c_sda                           i2c
C:   0000240E  A$i2c$795                          i2c
C:   00002411  A$i2c$796                          i2c
C:   00002412  A$i2c$799                          i2c
C:   00002412  C$i2c.c$37$1_0$34                  i2c
C:   00002413  A$i2c$800                          i2c
C:   00002414  A$i2c$801                          i2c
C:   00002417  A$i2c$802                          i2c
C:   00002418  A$i2c$803                          i2c
C:   0000241A  A$i2c$805                          i2c
C:   0000241B  A$i2c$808                          i2c
C:   0000241D  A$i2c$809                          i2c
C:   0000241F  A$i2c$814                          i2c
C:   0000241F  C$i2c.c$38$1_0$34                  i2c
C:   0000241F  XG$i2c_sda$0$0                     i2c
C:   00002420  A$i2c$827                          i2c
C:   00002420  C$i2c.c$40$1_0$36                  i2c
C:   00002420  G$i2c_scl$0$0                      i2c
C:   00002420  _i2c_scl                           i2c
C:   00002422  A$i2c$828                          i2c
C:   00002425  A$i2c$829                          i2c
C:   00002426  A$i2c$832                          i2c
C:   00002426  C$i2c.c$43$1_0$36                  i2c
C:   00002427  A$i2c$833                          i2c
C:   00002428  A$i2c$834                          i2c
C:   0000242B  A$i2c$835                          i2c
C:   0000242C  A$i2c$836                          i2c
C:   0000242E  A$i2c$838                          i2c
ASxxxx Linker V03.00 + NoICE + sdld,  page 36.
Hexadecimal  [32-Bits]

Area                                    Addr        Size        Decimal Bytes (Attributes)
--------------------------------        ----        ----        ------- ----- ------------
CSEG                                00002062    00001C05 =        7173. bytes (REL,CON,CODE)

      Value  Global                              Global Defined In Module
      -----  --------------------------------   ------------------------
C:   0000242F  A$i2c$841                          i2c
C:   00002431  A$i2c$842                          i2c
C:   00002433  A$i2c$847                          i2c
C:   00002433  C$i2c.c$44$1_0$36                  i2c
C:   00002433  XG$i2c_scl$0$0                     i2c
C:   00002434  A$i2c$860                          i2c
C:   00002434  C$i2c.c$46$1_0$37                  i2c
C:   00002434  C$i2c.c$49$1_0$37                  i2c
C:   00002434  G$i2c_acknowledge_check$0$0        i2c
C:   00002434  _i2c_acknowledge_check             i2c
C:   00002437  A$i2c$864                          i2c
C:   00002437  C$i2c.c$50$1_0$37                  i2c
C:   0000243A  A$i2c$871                          i2c
C:   0000243A  C$i2c.c$51$1_0$37                  i2c
C:   0000243A  C$i2c.c$53$1_0$37                  i2c
C:   0000243A  XG$i2c_acknowledge_check$0$0       i2c
C:   0000243B  A$i2c$884                          i2c
C:   0000243B  C$i2c.c$54$1_0$38                  i2c
C:   0000243B  C$i2c.c$57$1_0$38                  i2c
C:   0000243B  G$no_acknowledge$0$0               i2c
C:   0000243B  _no_acknowledge                    i2c
C:   0000243E  A$i2c$885                          i2c
C:   00002441  A$i2c$888                          i2c
C:   00002441  C$i2c.c$58$1_0$38                  i2c
C:   00002444  A$i2c$889                          i2c
C:   00002447  A$i2c$892                          i2c
C:   00002447  C$i2c.c$59$1_0$38                  i2c
C:   0000244A  A$i2c$893                          i2c
C:   0000244D  A$i2c$896                          i2c
C:   0000244D  C$i2c.c$60$1_0$38                  i2c
C:   00002450  A$i2c$897                          i2c
C:   00002453  A$i2c$904                          i2c
C:   00002453  C$i2c.c$61$1_0$38                  i2c
C:   00002453  C$i2c.c$62$1_0$38                  i2c
C:   00002453  XG$no_acknowledge$0$0              i2c
C:   00002454  A$i2c$917                          i2c
C:   00002454  C$i2c.c$64$1_0$40                  i2c
C:   00002454  C$i2c.c$67$1_0$40                  i2c
C:   00002454  G$i2c_start$0$0                    i2c
C:   00002454  _i2c_start                         i2c
C:   00002457  A$i2c$918                          i2c
C:   0000245A  A$i2c$921                          i2c
C:   0000245A  C$i2c.c$68$1_0$40                  i2c
C:   0000245D  A$i2c$922                          i2c
C:   00002460  A$i2c$925                          i2c
C:   00002460  C$i2c.c$69$1_0$40                  i2c
C:   00002463  A$i2c$926                          i2c
C:   00002466  A$i2c$929                          i2c
C:   00002466  C$i2c.c$70$1_0$40                  i2c
C:   00002469  A$i2c$930                          i2c
C:   0000246C  A$i2c$937                          i2c
ASxxxx Linker V03.00 + NoICE + sdld,  page 37.
Hexadecimal  [32-Bits]

Area                                    Addr        Size        Decimal Bytes (Attributes)
--------------------------------        ----        ----        ------- ----- ------------
CSEG                                00002062    00001C05 =        7173. bytes (REL,CON,CODE)

      Value  Global                              Global Defined In Module
      -----  --------------------------------   ------------------------
C:   0000246C  C$i2c.c$71$1_0$40                  i2c
C:   0000246C  C$i2c.c$72$1_0$40                  i2c
C:   0000246C  XG$i2c_start$0$0                   i2c
C:   0000246D  A$i2c$950                          i2c
C:   0000246D  C$i2c.c$74$1_0$42                  i2c
C:   0000246D  C$i2c.c$77$1_0$42                  i2c
C:   0000246D  G$i2c_stop$0$0                     i2c
C:   0000246D  _i2c_stop                          i2c
C:   00002470  A$i2c$951                          i2c
C:   00002473  A$i2c$954                          i2c
C:   00002473  C$i2c.c$78$1_0$42                  i2c
C:   00002476  A$i2c$955                          i2c
C:   00002479  A$i2c$958                          i2c
C:   00002479  C$i2c.c$79$1_0$42                  i2c
C:   0000247C  A$i2c$959                          i2c
C:   0000247F  A$i2c$962                          i2c
C:   0000247F  C$i2c.c$80$1_0$42                  i2c
C:   00002482  A$i2c$963                          i2c
C:   00002485  A$i2c$970                          i2c
C:   00002485  C$i2c.c$81$1_0$42                  i2c
C:   00002485  C$i2c.c$82$1_0$42                  i2c
C:   00002485  XG$i2c_stop$0$0                    i2c
C:   00002486  A$i2c$984                          i2c
C:   00002486  C$i2c.c$84$1_0$44                  i2c
C:   00002486  G$i2c_write_byte$0$0               i2c
C:   00002486  _i2c_write_byte                    i2c
C:   00002488  A$i2c$985                          i2c
C:   0000248B  A$i2c$986                          i2c
C:   0000248C  A$i2c$989                          i2c
C:   0000248C  C$i2c.c$87$1_0$44                  i2c
C:   0000248F  A$i2c$990                          i2c
C:   00002492  A$i2c$993                          i2c
C:   00002492  C$i2c.c$88$1_0$44                  i2c
C:   00002494  A$i2c$995                          i2c
C:   00002497  A$i2c$997                          i2c
C:   00002499  A$i2c$1000                         i2c
C:   00002499  C$i2c.c$91$3_0$46                  i2c
C:   0000249C  A$i2c$1001                         i2c
C:   0000249D  A$i2c$1002                         i2c
C:   000024A0  A$i2c$1003                         i2c
C:   000024A2  A$i2c$1004                         i2c
C:   000024A4  A$i2c$1005                         i2c
C:   000024A6  A$i2c$1007                         i2c
C:   000024A8  A$i2c$1008                         i2c
C:   000024AA  A$i2c$1010                         i2c
C:   000024AC  A$i2c$1011                         i2c
C:   000024AE  A$i2c$1012                         i2c
C:   000024B1  A$i2c$1015                         i2c
C:   000024B1  C$i2c.c$93$3_0$46                  i2c
C:   000024B4  A$i2c$1016                         i2c
C:   000024B6  A$i2c$1019                         i2c
ASxxxx Linker V03.00 + NoICE + sdld,  page 38.
Hexadecimal  [32-Bits]

Area                                    Addr        Size        Decimal Bytes (Attributes)
--------------------------------        ----        ----        ------- ----- ------------
CSEG                                00002062    00001C05 =        7173. bytes (REL,CON,CODE)

      Value  Global                              Global Defined In Module
      -----  --------------------------------   ------------------------
C:   000024B6  C$i2c.c$95$3_0$46                  i2c
C:   000024B9  A$i2c$1020                         i2c
C:   000024BA  A$i2c$1021                         i2c
C:   000024BC  A$i2c$1022                         i2c
C:   000024BD  A$i2c$1023                         i2c
C:   000024BE  A$i2c$1026                         i2c
C:   000024BE  C$i2c.c$88$2_0$45                  i2c
C:   000024BF  A$i2c$1027                         i2c
C:   000024C1  A$i2c$1031                         i2c
C:   000024C1  C$i2c.c$97$1_0$44                  i2c
C:   000024C4  A$i2c$1032                         i2c
C:   000024C7  A$i2c$1039                         i2c
C:   000024C7  C$i2c.c$98$1_0$44                  i2c
C:   000024C7  C$i2c.c$99$1_0$44                  i2c
C:   000024C7  XG$i2c_write_byte$0$0              i2c
C:   000024C8  A$i2c$1055                         i2c
C:   000024C8  C$i2c.c$103$1_0$48                 i2c
C:   000024C8  C$i2c.c$106$2_0$48                 i2c
C:   000024C8  G$i2c_read_byte$0$0                i2c
C:   000024C8  _i2c_read_byte                     i2c
C:   000024CB  A$i2c$1056                         i2c
C:   000024CC  A$i2c$1057                         i2c
C:   000024CD  A$i2c$1060                         i2c
C:   000024CD  C$i2c.c$107$1_0$48                 i2c
C:   000024D0  A$i2c$1061                         i2c
C:   000024D3  A$i2c$1064                         i2c
C:   000024D3  C$i2c.c$111$1_1$48                 i2c
C:   000024D5  A$i2c$1066                         i2c
C:   000024D8  A$i2c$1068                         i2c
C:   000024DA  A$i2c$1071                         i2c
C:   000024DA  C$i2c.c$114$2_1$50                 i2c
C:   000024DD  A$i2c$1072                         i2c
C:   000024DF  A$i2c$1073                         i2c
C:   000024E2  A$i2c$1074                         i2c
C:   000024E4  A$i2c$1077                         i2c
C:   000024E4  C$i2c.c$115$2_1$50                 i2c
C:   000024E7  A$i2c$1078                         i2c
C:   000024E8  A$i2c$1079                         i2c
C:   000024EA  A$i2c$1080                         i2c
C:   000024EB  A$i2c$1083                         i2c
C:   000024EB  C$i2c.c$118$2_1$50                 i2c
C:   000024EE  A$i2c$1086                         i2c
C:   000024EE  C$i2c.c$120$3_1$51                 i2c
C:   000024F1  A$i2c$1087                         i2c
C:   000024F2  A$i2c$1088                         i2c
C:   000024F5  A$i2c$1089                         i2c
C:   000024F6  A$i2c$1090                         i2c
C:   000024F8  A$i2c$1094                         i2c
C:   000024F8  C$i2c.c$124$3_1$52                 i2c
C:   000024FB  A$i2c$1095                         i2c
C:   000024FC  A$i2c$1096                         i2c
ASxxxx Linker V03.00 + NoICE + sdld,  page 39.
Hexadecimal  [32-Bits]

Area                                    Addr        Size        Decimal Bytes (Attributes)
--------------------------------        ----        ----        ------- ----- ------------
CSEG                                00002062    00001C05 =        7173. bytes (REL,CON,CODE)

      Value  Global                              Global Defined In Module
      -----  --------------------------------   ------------------------
C:   000024FF  A$i2c$1097                         i2c
C:   00002500  A$i2c$1101                         i2c
C:   00002500  C$i2c.c$128$2_1$50                 i2c
C:   00002503  A$i2c$1102                         i2c
C:   00002505  A$i2c$1103                         i2c
C:   00002508  A$i2c$1104                         i2c
C:   0000250A  A$i2c$1107                         i2c
C:   0000250A  C$i2c.c$129$2_1$50                 i2c
C:   0000250B  A$i2c$1108                         i2c
C:   0000250D  A$i2c$1112                         i2c
C:   0000250D  C$i2c.c$133$1_1$49                 i2c
C:   00002510  A$i2c$1113                         i2c
C:   00002511  A$i2c$1118                         i2c
C:   00002511  C$i2c.c$134$1_1$48                 i2c
C:   00002511  XG$i2c_read_byte$0$0               i2c
C:   00002513  A$i2c$1119                         i2c
C:   00002514  A$i2c$1135                         i2c
C:   00002514  C$i2c.c$137$1_1$54                 i2c
C:   00002514  G$i2c_eeprom_write$0$0             i2c
C:   00002514  _i2c_eeprom_write                  i2c
C:   00002516  A$i2c$1136                         i2c
C:   00002518  A$i2c$1137                         i2c
C:   0000251B  A$i2c$1138                         i2c
C:   0000251C  A$i2c$1139                         i2c
C:   0000251D  A$i2c$1140                         i2c
C:   0000251E  A$i2c$1141                         i2c
C:   0000251F  A$i2c$1144                         i2c
C:   0000251F  C$i2c.c$142$1_0$54                 i2c
C:   00002522  A$i2c$1145                         i2c
C:   00002523  A$i2c$1146                         i2c
C:   00002524  A$i2c$1147                         i2c
C:   00002525  A$i2c$1148                         i2c
C:   00002526  A$i2c$1149                         i2c
C:   00002527  A$i2c$1150                         i2c
C:   0000252A  A$i2c$1151                         i2c
C:   0000252B  A$i2c$1152                         i2c
C:   0000252C  A$i2c$1155                         i2c
C:   0000252C  C$i2c.c$144$1_0$54                 i2c
C:   0000252D  A$i2c$1156                         i2c
C:   0000252F  A$i2c$1157                         i2c
C:   00002530  A$i2c$1158                         i2c
C:   00002531  A$i2c$1159                         i2c
C:   00002532  A$i2c$1160                         i2c
C:   00002533  A$i2c$1161                         i2c
C:   00002534  A$i2c$1162                         i2c
C:   00002536  A$i2c$1163                         i2c
C:   00002537  A$i2c$1164                         i2c
C:   0000253A  A$i2c$1165                         i2c
C:   0000253B  A$i2c$1166                         i2c
C:   0000253C  A$i2c$1167                         i2c
C:   0000253D  A$i2c$1168                         i2c
ASxxxx Linker V03.00 + NoICE + sdld,  page 40.
Hexadecimal  [32-Bits]

Area                                    Addr        Size        Decimal Bytes (Attributes)
--------------------------------        ----        ----        ------- ----- ------------
CSEG                                00002062    00001C05 =        7173. bytes (REL,CON,CODE)

      Value  Global                              Global Defined In Module
      -----  --------------------------------   ------------------------
C:   0000253E  A$i2c$1169                         i2c
C:   0000253F  A$i2c$1172                         i2c
C:   0000253F  C$i2c.c$146$1_0$54                 i2c
C:   00002542  A$i2c$1173                         i2c
C:   00002543  A$i2c$1174                         i2c
C:   00002544  A$i2c$1175                         i2c
C:   00002545  A$i2c$1176                         i2c
C:   00002546  A$i2c$1179                         i2c
C:   00002546  C$i2c.c$148$1_0$54                 i2c
C:   00002548  A$i2c$1180                         i2c
C:   00002549  A$i2c$1185                         i2c
C:   00002549  C$i2c.c$150$1_0$54                 i2c
C:   00002549  C$i2c.c$151$1_0$54                 i2c
C:   0000254B  A$i2c$1186                         i2c
C:   0000254C  A$i2c$1189                         i2c
C:   0000254C  C$i2c.c$154$1_0$54                 i2c
C:   0000254E  A$i2c$1190                         i2c
C:   00002551  A$i2c$1191                         i2c
C:   00002553  A$i2c$1194                         i2c
C:   00002553  C$i2c.c$156$1_0$54                 i2c
C:   00002555  A$i2c$1195                         i2c
C:   00002558  A$i2c$1198                         i2c
C:   00002558  C$i2c.c$158$1_0$54                 i2c
C:   0000255B  A$i2c$1201                         i2c
C:   0000255B  C$i2c.c$160$1_0$54                 i2c
C:   0000255E  A$i2c$1202                         i2c
C:   0000255F  A$i2c$1203                         i2c
C:   00002561  A$i2c$1204                         i2c
C:   00002564  A$i2c$1207                         i2c
C:   00002564  C$i2c.c$162$1_0$54                 i2c
C:   00002567  A$i2c$1210                         i2c
C:   00002567  C$i2c.c$164$1_0$54                 i2c
C:   0000256A  A$i2c$1211                         i2c
C:   0000256B  A$i2c$1212                         i2c
C:   0000256D  A$i2c$1213                         i2c
C:   00002570  A$i2c$1216                         i2c
C:   00002570  C$i2c.c$166$1_0$54                 i2c
C:   00002573  A$i2c$1219                         i2c
C:   00002573  C$i2c.c$168$1_0$54                 i2c
C:   00002576  A$i2c$1226                         i2c
C:   00002576  C$i2c.c$170$1_0$54                 i2c
C:   00002576  C$i2c.c$171$1_0$54                 i2c
C:   00002576  XG$i2c_eeprom_write$0$0            i2c
C:   00002577  A$i2c$1242                         i2c
C:   00002577  C$i2c.c$173$1_0$56                 i2c
C:   00002577  G$i2c_eeprom_read$0$0              i2c
C:   00002577  _i2c_eeprom_read                   i2c
C:   00002579  A$i2c$1243                         i2c
C:   0000257B  A$i2c$1244                         i2c
C:   0000257E  A$i2c$1245                         i2c
C:   0000257F  A$i2c$1246                         i2c
ASxxxx Linker V03.00 + NoICE + sdld,  page 41.
Hexadecimal  [32-Bits]

Area                                    Addr        Size        Decimal Bytes (Attributes)
--------------------------------        ----        ----        ------- ----- ------------
CSEG                                00002062    00001C05 =        7173. bytes (REL,CON,CODE)

      Value  Global                              Global Defined In Module
      -----  --------------------------------   ------------------------
C:   00002580  A$i2c$1247                         i2c
C:   00002581  A$i2c$1248                         i2c
C:   00002582  A$i2c$1251                         i2c
C:   00002582  C$i2c.c$177$1_0$56                 i2c
C:   00002585  A$i2c$1252                         i2c
C:   00002586  A$i2c$1253                         i2c
C:   00002587  A$i2c$1254                         i2c
C:   00002588  A$i2c$1255                         i2c
C:   00002589  A$i2c$1256                         i2c
C:   0000258A  A$i2c$1257                         i2c
C:   0000258D  A$i2c$1258                         i2c
C:   0000258E  A$i2c$1259                         i2c
C:   0000258F  A$i2c$1262                         i2c
C:   0000258F  C$i2c.c$179$1_0$56                 i2c
C:   00002590  A$i2c$1263                         i2c
C:   00002592  A$i2c$1264                         i2c
C:   00002593  A$i2c$1265                         i2c
C:   00002594  A$i2c$1266                         i2c
C:   00002595  A$i2c$1267                         i2c
C:   00002596  A$i2c$1268                         i2c
C:   00002597  A$i2c$1269                         i2c
C:   00002599  A$i2c$1270                         i2c
C:   0000259A  A$i2c$1271                         i2c
C:   0000259D  A$i2c$1272                         i2c
C:   0000259E  A$i2c$1273                         i2c
C:   0000259F  A$i2c$1274                         i2c
C:   000025A0  A$i2c$1275                         i2c
C:   000025A1  A$i2c$1276                         i2c
C:   000025A2  A$i2c$1279                         i2c
C:   000025A2  C$i2c.c$181$1_0$56                 i2c
C:   000025A5  A$i2c$1280                         i2c
C:   000025A6  A$i2c$1281                         i2c
C:   000025A7  A$i2c$1282                         i2c
C:   000025A8  A$i2c$1283                         i2c
C:   000025A9  A$i2c$1286                         i2c
C:   000025A9  C$i2c.c$183$1_0$56                 i2c
C:   000025AB  A$i2c$1287                         i2c
C:   000025AC  A$i2c$1292                         i2c
C:   000025AC  C$i2c.c$185$1_0$56                 i2c
C:   000025AC  C$i2c.c$186$1_0$56                 i2c
C:   000025AE  A$i2c$1293                         i2c
C:   000025AF  A$i2c$1296                         i2c
C:   000025AF  C$i2c.c$189$1_0$56                 i2c
C:   000025B1  A$i2c$1297                         i2c
C:   000025B4  A$i2c$1298                         i2c
C:   000025B6  A$i2c$1301                         i2c
C:   000025B6  C$i2c.c$191$1_0$56                 i2c
C:   000025B8  A$i2c$1302                         i2c
C:   000025BA  A$i2c$1303                         i2c
C:   000025BD  A$i2c$1306                         i2c
C:   000025BD  C$i2c.c$193$1_0$56                 i2c
ASxxxx Linker V03.00 + NoICE + sdld,  page 42.
Hexadecimal  [32-Bits]

Area                                    Addr        Size        Decimal Bytes (Attributes)
--------------------------------        ----        ----        ------- ----- ------------
CSEG                                00002062    00001C05 =        7173. bytes (REL,CON,CODE)

      Value  Global                              Global Defined In Module
      -----  --------------------------------   ------------------------
C:   000025C0  A$i2c$1309                         i2c
C:   000025C0  C$i2c.c$195$1_0$56                 i2c
C:   000025C3  A$i2c$1310                         i2c
C:   000025C4  A$i2c$1311                         i2c
C:   000025C6  A$i2c$1312                         i2c
C:   000025C9  A$i2c$1315                         i2c
C:   000025C9  C$i2c.c$197$1_0$56                 i2c
C:   000025CC  A$i2c$1316                         i2c
C:   000025CE  A$i2c$1319                         i2c
C:   000025CE  C$i2c.c$199$1_0$56                 i2c
C:   000025D1  A$i2c$1322                         i2c
C:   000025D1  C$i2c.c$201$1_0$56                 i2c
C:   000025D3  A$i2c$1323                         i2c
C:   000025D6  A$i2c$1324                         i2c
C:   000025D8  A$i2c$1327                         i2c
C:   000025D8  C$i2c.c$203$1_0$56                 i2c
C:   000025DA  A$i2c$1328                         i2c
C:   000025DD  A$i2c$1331                         i2c
C:   000025DD  C$i2c.c$205$1_0$56                 i2c
C:   000025E0  A$i2c$1334                         i2c
C:   000025E0  C$i2c.c$207$1_0$56                 i2c
C:   000025E3  A$i2c$1335                         i2c
C:   000025E5  A$i2c$1338                         i2c
C:   000025E5  C$i2c.c$209$1_0$56                 i2c
C:   000025E7  A$i2c$1339                         i2c
C:   000025EA  A$i2c$1342                         i2c
C:   000025EA  C$i2c.c$211$1_0$56                 i2c
C:   000025ED  A$i2c$1343                         i2c
C:   000025EF  A$i2c$1346                         i2c
C:   000025EF  C$i2c.c$213$1_0$56                 i2c
C:   000025F1  A$i2c$1351                         i2c
C:   000025F1  C$i2c.c$214$1_0$56                 i2c
C:   000025F1  XG$i2c_eeprom_read$0$0             i2c
C:   000025F2  A$i2c$1366                         i2c
C:   000025F2  C$i2c.c$216$1_0$57                 i2c
C:   000025F2  C$i2c.c$220$1_0$57                 i2c
C:   000025F2  G$i2c_handler_eeprom_reset$0$0     i2c
C:   000025F2  _i2c_handler_eeprom_reset          i2c
C:   000025F5  A$i2c$1369                         i2c
C:   000025F5  C$i2c.c$221$1_0$57                 i2c
C:   000025F7  A$i2c$1373                         i2c
C:   000025F7  C$i2c.c$224$3_0$59                 i2c
C:   000025FA  A$i2c$1374                         i2c
C:   000025FC  A$i2c$1375                         i2c
C:   000025FF  A$i2c$1378                         i2c
C:   000025FF  C$i2c.c$226$3_0$59                 i2c
C:   00002602  A$i2c$1379                         i2c
C:   00002604  A$i2c$1382                         i2c
C:   00002604  C$i2c.c$221$2_0$58                 i2c
C:   00002605  A$i2c$1383                         i2c
C:   00002608  A$i2c$1385                         i2c
ASxxxx Linker V03.00 + NoICE + sdld,  page 43.
Hexadecimal  [32-Bits]

Area                                    Addr        Size        Decimal Bytes (Attributes)
--------------------------------        ----        ----        ------- ----- ------------
CSEG                                00002062    00001C05 =        7173. bytes (REL,CON,CODE)

      Value  Global                              Global Defined In Module
      -----  --------------------------------   ------------------------
C:   0000260A  A$i2c$1388                         i2c
C:   0000260A  C$i2c.c$229$1_0$57                 i2c
C:   0000260D  A$i2c$1395                         i2c
C:   0000260D  C$i2c.c$230$1_0$57                 i2c
C:   0000260D  C$i2c.c$231$1_0$57                 i2c
C:   0000260D  XG$i2c_handler_eeprom_reset$0$0    i2c
C:   0000260E  A$main$772                         main
C:   0000260E  C$main.c$46$0_0$89                 main
C:   0000260E  C$main.c$49$1_0$89                 main
C:   0000260E  G$_sdcc_external_startup$0$0       main
C:   0000260E  __sdcc_external_startup            main
C:   00002611  A$main$775                         main
C:   00002611  C$main.c$52$1_0$89                 main
C:   00002614  A$main$780                         main
C:   00002614  C$main.c$53$1_0$89                 main
C:   00002614  XG$_sdcc_external_startup$0$0      main
C:   00002615  A$main$795                         main
C:   00002615  C$main.c$64$1_0$91                 main
C:   00002615  C$main.c$66$1_0$91                 main
C:   00002615  G$main$0$0                         main
C:   00002615  _main                              main
C:   00002618  A$main$798                         main
C:   00002618  C$main.c$67$1_0$91                 main
C:   0000261B  A$main$801                         main
C:   0000261B  C$main.c$68$1_0$91                 main
C:   0000261E  A$main$807                         main
C:   0000261E  C$main.c$70$1_0$91                 main
C:   0000261E  C$main.c$74$2_0$92                 main
C:   00002621  A$main$808                         main
C:   00002623  A$main$809                         main
C:   00002624  A$main$810                         main
C:   00002625  A$main$811                         main
C:   00002626  A$main$812                         main
C:   00002627  A$main$813                         main
C:   0000262A  A$main$814                         main
C:   0000262D  A$main$815                         main
C:   00002630  A$main$818                         main
C:   00002630  C$main.c$75$2_0$92                 main
C:   00002633  A$main$819                         main
C:   00002635  A$main$820                         main
C:   00002636  A$main$821                         main
C:   00002637  A$main$822                         main
C:   00002638  A$main$823                         main
C:   00002639  A$main$824                         main
C:   0000263C  A$main$825                         main
C:   0000263F  A$main$826                         main
C:   00002642  A$main$829                         main
C:   00002642  C$main.c$76$2_0$92                 main
C:   00002645  A$main$830                         main
C:   00002647  A$main$831                         main
C:   00002648  A$main$832                         main
ASxxxx Linker V03.00 + NoICE + sdld,  page 44.
Hexadecimal  [32-Bits]

Area                                    Addr        Size        Decimal Bytes (Attributes)
--------------------------------        ----        ----        ------- ----- ------------
CSEG                                00002062    00001C05 =        7173. bytes (REL,CON,CODE)

      Value  Global                              Global Defined In Module
      -----  --------------------------------   ------------------------
C:   00002649  A$main$833                         main
C:   0000264A  A$main$834                         main
C:   0000264B  A$main$835                         main
C:   0000264E  A$main$836                         main
C:   00002651  A$main$837                         main
C:   00002654  A$main$840                         main
C:   00002654  C$main.c$77$2_0$92                 main
C:   00002657  A$main$841                         main
C:   00002659  A$main$842                         main
C:   0000265A  A$main$843                         main
C:   0000265B  A$main$844                         main
C:   0000265C  A$main$845                         main
C:   0000265D  A$main$846                         main
C:   00002660  A$main$847                         main
C:   00002663  A$main$848                         main
C:   00002666  A$main$851                         main
C:   00002666  C$main.c$78$2_0$92                 main
C:   00002669  A$main$852                         main
C:   0000266B  A$main$853                         main
C:   0000266C  A$main$854                         main
C:   0000266D  A$main$855                         main
C:   0000266E  A$main$856                         main
C:   0000266F  A$main$857                         main
C:   00002672  A$main$858                         main
C:   00002675  A$main$859                         main
C:   00002678  A$main$862                         main
C:   00002678  C$main.c$82$2_1$93                 main
C:   0000267B  A$main$863                         main
C:   0000267D  A$main$866                         main
C:   0000267D  C$main.c$83$2_1$93                 main
C:   0000267F  A$main$867                         main
C:   00002681  A$main$868                         main
C:   00002683  A$main$869                         main
C:   00002685  A$main$870                         main
C:   00002687  A$main$871                         main
C:   0000268A  A$main$874                         main
C:   0000268A  C$main.c$84$2_1$93                 main
C:   0000268D  A$main$875                         main
C:   00002690  A$main$876                         main
C:   00002692  A$main$879                         main
C:   00002692  C$main.c$87$2_1$93                 main
C:   00002695  A$main$880                         main
C:   00002697  A$main$882                         main
C:   0000269A  A$main$883                         main
C:   0000269C  A$main$885                         main
C:   0000269F  A$main$886                         main
C:   000026A1  A$main$888                         main
C:   000026A4  A$main$889                         main
C:   000026A6  A$main$893                         main
C:   000026A6  C$main.c$89$3_1$94                 main
C:   000026A9  A$main$894                         main
ASxxxx Linker V03.00 + NoICE + sdld,  page 45.
Hexadecimal  [32-Bits]

Area                                    Addr        Size        Decimal Bytes (Attributes)
--------------------------------        ----        ----        ------- ----- ------------
CSEG                                00002062    00001C05 =        7173. bytes (REL,CON,CODE)

      Value  Global                              Global Defined In Module
      -----  --------------------------------   ------------------------
C:   000026AB  A$main$898                         main
C:   000026AB  C$main.c$90$3_1$94                 main
C:   000026AD  A$main$899                         main
C:   000026AF  A$main$900                         main
C:   000026B1  A$main$901                         main
C:   000026B3  A$main$902                         main
C:   000026B6  A$main$903                         main
C:   000026B8  A$main$904                         main
C:   000026BA  A$main$907                         main
C:   000026BA  C$main.c$91$3_1$94                 main
C:   000026BD  A$main$910                         main
C:   000026BD  C$main.c$92$3_1$94                 main
C:   000026C0  A$main$916                         main
C:   000026C0  C$main.c$93$3_1$94                 main
C:   000026C0  C$main.c$94$3_1$94                 main
C:   000026C2  A$main$917                         main
C:   000026C4  A$main$918                         main
C:   000026C6  A$main$919                         main
C:   000026C8  A$main$920                         main
C:   000026CB  A$main$921                         main
C:   000026CD  A$main$922                         main
C:   000026CF  A$main$925                         main
C:   000026CF  C$main.c$95$3_1$94                 main
C:   000026D2  A$main$928                         main
C:   000026D2  C$main.c$96$3_1$94                 main
C:   000026D5  A$main$934                         main
C:   000026D5  C$main.c$97$3_1$94                 main
C:   000026D5  C$main.c$98$3_1$94                 main
C:   000026D7  A$main$935                         main
C:   000026D9  A$main$936                         main
C:   000026DB  A$main$937                         main
C:   000026DD  A$main$938                         main
C:   000026E0  A$main$939                         main
C:   000026E2  A$main$940                         main
C:   000026E4  A$main$943                         main
C:   000026E4  C$main.c$99$3_1$94                 main
C:   000026E7  A$main$946                         main
C:   000026E7  C$main.c$100$3_1$94                main
C:   000026EA  A$main$952                         main
C:   000026EA  C$main.c$101$3_1$94                main
C:   000026EA  C$main.c$102$3_1$94                main
C:   000026EC  A$main$953                         main
C:   000026EE  A$main$954                         main
C:   000026F0  A$main$955                         main
C:   000026F2  A$main$956                         main
C:   000026F5  A$main$957                         main
C:   000026F7  A$main$958                         main
C:   000026F9  A$main$961                         main
C:   000026F9  C$main.c$103$3_1$94                main
C:   000026FC  A$main$964                         main
C:   000026FC  C$main.c$104$3_1$94                main
ASxxxx Linker V03.00 + NoICE + sdld,  page 46.
Hexadecimal  [32-Bits]

Area                                    Addr        Size        Decimal Bytes (Attributes)
--------------------------------        ----        ----        ------- ----- ------------
CSEG                                00002062    00001C05 =        7173. bytes (REL,CON,CODE)

      Value  Global                              Global Defined In Module
      -----  --------------------------------   ------------------------
C:   000026FF  A$main$970                         main
C:   000026FF  C$main.c$105$3_1$94                main
C:   000026FF  C$main.c$106$3_1$94                main
C:   00002701  A$main$971                         main
C:   00002703  A$main$972                         main
C:   00002705  A$main$973                         main
C:   00002707  A$main$974                         main
C:   0000270A  A$main$975                         main
C:   0000270C  A$main$976                         main
C:   0000270E  A$main$979                         main
C:   0000270E  C$main.c$107$3_1$94                main
C:   00002711  A$main$982                         main
C:   00002711  C$main.c$108$3_1$94                main
C:   00002713  A$main$983                         main
C:   00002715  A$main$984                         main
C:   00002717  A$main$985                         main
C:   00002719  A$main$986                         main
C:   0000271C  A$main$987                         main
C:   0000271E  A$main$988                         main
C:   00002720  A$main$991                         main
C:   00002720  C$main.c$109$3_1$94                main
C:   00002723  A$main$997                         main
C:   00002723  C$main.c$110$3_1$94                main
C:   00002723  C$main.c$111$3_1$94                main
C:   00002725  A$main$998                         main
C:   00002727  A$main$999                         main
C:   00002729  A$main$1000                        main
C:   0000272B  A$main$1001                        main
C:   0000272E  A$main$1002                        main
C:   00002730  A$main$1003                        main
C:   00002732  A$main$1006                        main
C:   00002732  C$main.c$112$3_1$94                main
C:   00002734  A$main$1007                        main
C:   00002736  A$main$1008                        main
C:   00002738  A$main$1009                        main
C:   0000273A  A$main$1010                        main
C:   0000273D  A$main$1011                        main
C:   0000273F  A$main$1012                        main
C:   00002741  A$main$1015                        main
C:   00002741  C$main.c$113$3_1$94                main
C:   00002743  A$main$1016                        main
C:   00002745  A$main$1017                        main
C:   00002747  A$main$1018                        main
C:   00002749  A$main$1019                        main
C:   0000274C  A$main$1020                        main
C:   0000274E  A$main$1021                        main
C:   00002750  A$main$1024                        main
C:   00002750  C$main.c$115$1_0$91                main
C:   00002753  A$main$1029                        main
C:   00002753  C$main.c$117$1_0$91                main
C:   00002753  XG$main$0$0                        main
ASxxxx Linker V03.00 + NoICE + sdld,  page 47.
Hexadecimal  [32-Bits]

Area                                    Addr        Size        Decimal Bytes (Attributes)
--------------------------------        ----        ----        ------- ----- ------------
CSEG                                00002062    00001C05 =        7173. bytes (REL,CON,CODE)

      Value  Global                              Global Defined In Module
      -----  --------------------------------   ------------------------
C:   00002754  A$string_func$756                  string_func
C:   00002754  C$string_func.c$35$0_0$48          string_func
C:   00002754  C$string_func.c$37$1_0$48          string_func
C:   00002754  C$string_func.c$38$1_0$48          string_func
C:   00002754  Fmain$__str_1$0_0$0                main
C:   00002754  Fmain$__str_2$0_0$0                main
C:   00002754  Fmain$__str_3$0_0$0                main
C:   00002754  Fmain$__str_4$0_0$0                main
C:   00002754  Fmain$__str_5$0_0$0                main
C:   00002754  Fmain$__str_6$0_0$0                main
C:   00002754  Fmain$__str_7$0_0$0                main
C:   00002754  G$getchar$0$0                      string_func
C:   00002754  _getchar                           string_func
C:   00002757  A$string_func$757                  string_func
C:   00002759  A$string_func$761                  string_func
C:   00002759  C$string_func.c$39$1_0$48          string_func
C:   0000275B  A$string_func$762                  string_func
C:   0000275D  A$string_func$763                  string_func
C:   0000275F  A$string_func$764                  string_func
C:   00002761  A$string_func$769                  string_func
C:   00002761  C$string_func.c$40$1_0$48          string_func
C:   00002761  XG$getchar$0$0                     string_func
C:   00002762  A$string_func$782                  string_func
C:   00002762  C$string_func.c$52$1_0$50          string_func
C:   00002762  G$putchar$0$0                      string_func
C:   00002762  _putchar                           string_func
C:   00002764  A$string_func$783                  string_func
C:   00002766  A$string_func$784                  string_func
C:   00002769  A$string_func$785                  string_func
C:   0000276A  A$string_func$786                  string_func
C:   0000276B  A$string_func$787                  string_func
C:   0000276C  A$string_func$788                  string_func
C:   0000276D  A$string_func$792                  string_func
C:   0000276D  C$string_func.c$54$1_0$50          string_func
C:   00002770  A$string_func$795                  string_func
C:   00002770  C$string_func.c$55$1_0$50          string_func
C:   00002773  A$string_func$796                  string_func
C:   00002774  A$string_func$797                  string_func
C:   00002775  A$string_func$798                  string_func
C:   00002776  A$string_func$799                  string_func
C:   00002777  A$string_func$800                  string_func
C:   00002778  A$string_func$801                  string_func
C:   0000277A  A$string_func$805                  string_func
C:   0000277A  C$string_func.c$56$1_0$50          string_func
C:   0000277C  A$string_func$808                  string_func
C:   0000277C  C$string_func.c$57$1_0$50          string_func
C:   0000277E  A$string_func$809                  string_func
C:   00002780  A$string_func$814                  string_func
C:   00002780  C$string_func.c$58$1_0$50          string_func
C:   00002780  XG$putchar$0$0                     string_func
C:   00002781  A$string_func$829                  string_func
ASxxxx Linker V03.00 + NoICE + sdld,  page 48.
Hexadecimal  [32-Bits]

Area                                    Addr        Size        Decimal Bytes (Attributes)
--------------------------------        ----        ----        ------- ----- ------------
CSEG                                00002062    00001C05 =        7173. bytes (REL,CON,CODE)

      Value  Global                              Global Defined In Module
      -----  --------------------------------   ------------------------
C:   00002781  C$string_func.c$69$1_0$53          string_func
C:   00002781  G$gets_$0$0                        string_func
C:   00002781  _gets_                             string_func
C:   00002783  A$string_func$830                  string_func
C:   00002785  A$string_func$831                  string_func
C:   00002788  A$string_func$832                  string_func
C:   00002789  A$string_func$833                  string_func
C:   0000278A  A$string_func$834                  string_func
C:   0000278B  A$string_func$835                  string_func
C:   0000278C  A$string_func$838                  string_func
C:   0000278C  C$string_func.c$70$3_0$54          string_func
C:   0000278F  A$string_func$839                  string_func
C:   00002790  A$string_func$840                  string_func
C:   00002791  A$string_func$841                  string_func
C:   00002792  A$string_func$842                  string_func
C:   00002793  A$string_func$843                  string_func
C:   00002794  A$string_func$844                  string_func
C:   00002796  A$string_func$845                  string_func
C:   00002798  A$string_func$849                  string_func
C:   00002798  C$string_func.c$71$3_0$54          string_func
C:   0000279A  A$string_func$850                  string_func
C:   0000279C  A$string_func$851                  string_func
C:   0000279E  A$string_func$852                  string_func
C:   000027A0  A$string_func$853                  string_func
C:   000027A3  A$string_func$854                  string_func
C:   000027A5  A$string_func$857                  string_func
C:   000027A5  C$string_func.c$72$3_0$54          string_func
C:   000027A7  A$string_func$858                  string_func
C:   000027A9  A$string_func$859                  string_func
C:   000027AB  A$string_func$860                  string_func
C:   000027AD  A$string_func$861                  string_func
C:   000027AF  A$string_func$862                  string_func
C:   000027B2  A$string_func$863                  string_func
C:   000027B4  A$string_func$864                  string_func
C:   000027B6  A$string_func$865                  string_func
C:   000027B8  A$string_func$866                  string_func
C:   000027BA  A$string_func$867                  string_func
C:   000027BC  A$string_func$870                  string_func
C:   000027BC  C$string_func.c$73$3_0$54          string_func
C:   000027BF  A$string_func$871                  string_func
C:   000027C1  A$string_func$873                  string_func
C:   000027C4  A$string_func$877                  string_func
C:   000027C4  C$string_func.c$74$4_0$55          string_func
C:   000027C7  A$string_func$878                  string_func
C:   000027C8  A$string_func$879                  string_func
C:   000027C9  A$string_func$880                  string_func
C:   000027CA  A$string_func$881                  string_func
C:   000027CB  A$string_func$882                  string_func
C:   000027CC  A$string_func$883                  string_func
C:   000027CD  A$string_func$884                  string_func
C:   000027CE  A$string_func$885                  string_func
ASxxxx Linker V03.00 + NoICE + sdld,  page 49.
Hexadecimal  [32-Bits]

Area                                    Addr        Size        Decimal Bytes (Attributes)
--------------------------------        ----        ----        ------- ----- ------------
CSEG                                00002062    00001C05 =        7173. bytes (REL,CON,CODE)

      Value  Global                              Global Defined In Module
      -----  --------------------------------   ------------------------
C:   000027D0  A$string_func$886                  string_func
C:   000027D1  A$string_func$887                  string_func
C:   000027D2  A$string_func$888                  string_func
C:   000027D4  A$string_func$889                  string_func
C:   000027D5  A$string_func$890                  string_func
C:   000027D6  A$string_func$893                  string_func
C:   000027D6  C$string_func.c$75$4_0$55          string_func
C:   000027D8  A$string_func$897                  string_func
C:   000027D8  C$string_func.c$77$3_0$54          string_func
C:   000027D9  A$string_func$898                  string_func
C:   000027DA  A$string_func$899                  string_func
C:   000027DC  A$string_func$900                  string_func
C:   000027DD  A$string_func$901                  string_func
C:   000027DE  A$string_func$902                  string_func
C:   000027E0  A$string_func$903                  string_func
C:   000027E1  A$string_func$904                  string_func
C:   000027E2  A$string_func$907                  string_func
C:   000027E2  C$string_func.c$70$2_0$53          string_func
C:   000027E3  A$string_func$908                  string_func
C:   000027E6  A$string_func$909                  string_func
C:   000027E7  A$string_func$910                  string_func
C:   000027E9  A$string_func$916                  string_func
C:   000027E9  C$string_func.c$79$2_0$53          string_func
C:   000027E9  XG$gets_$0$0                       string_func
C:   000027EA  A$string_func$929                  string_func
C:   000027EA  C$string_func.c$89$2_0$58          string_func
C:   000027EA  G$puts_$0$0                        string_func
C:   000027EA  _puts_                             string_func
C:   000027EC  A$string_func$930                  string_func
C:   000027EE  A$string_func$931                  string_func
C:   000027F1  A$string_func$932                  string_func
C:   000027F2  A$string_func$933                  string_func
C:   000027F3  A$string_func$934                  string_func
C:   000027F4  A$string_func$935                  string_func
C:   000027F5  A$string_func$936                  string_func
C:   000027F8  A$string_func$937                  string_func
C:   000027F9  A$string_func$938                  string_func
C:   000027FA  A$string_func$939                  string_func
C:   000027FB  A$string_func$940                  string_func
C:   000027FC  A$string_func$941                  string_func
C:   000027FD  A$string_func$945                  string_func
C:   000027FF  A$string_func$946                  string_func
C:   00002801  A$string_func$947                  string_func
C:   00002802  A$string_func$948                  string_func
C:   00002803  A$string_func$949                  string_func
C:   00002805  A$string_func$952                  string_func
C:   00002805  C$string_func.c$91$3_0$59          string_func
C:   00002807  A$string_func$953                  string_func
C:   00002809  A$string_func$954                  string_func
C:   0000280B  A$string_func$955                  string_func
C:   0000280D  A$string_func$956                  string_func
ASxxxx Linker V03.00 + NoICE + sdld,  page 50.
Hexadecimal  [32-Bits]

Area                                    Addr        Size        Decimal Bytes (Attributes)
--------------------------------        ----        ----        ------- ----- ------------
CSEG                                00002062    00001C05 =        7173. bytes (REL,CON,CODE)

      Value  Global                              Global Defined In Module
      -----  --------------------------------   ------------------------
C:   0000280F  A$string_func$957                  string_func
C:   00002812  A$string_func$958                  string_func
C:   00002814  A$string_func$959                  string_func
C:   00002816  A$string_func$962                  string_func
C:   00002816  C$string_func.c$90$2_0$58          string_func
C:   00002817  A$string_func$963                  string_func
C:   0000281A  A$string_func$964                  string_func
C:   0000281B  A$string_func$966                  string_func
C:   0000281E  A$string_func$967                  string_func
C:   0000281F  A$string_func$968                  string_func
C:   00002820  A$string_func$969                  string_func
C:   00002821  A$string_func$970                  string_func
C:   00002822  A$string_func$971                  string_func
C:   00002823  A$string_func$972                  string_func
C:   00002825  A$string_func$974                  string_func
C:   00002828  A$string_func$975                  string_func
C:   00002829  A$string_func$976                  string_func
C:   0000282A  A$string_func$977                  string_func
C:   0000282B  A$string_func$978                  string_func
C:   0000282C  A$string_func$979                  string_func
C:   0000282D  A$string_func$984                  string_func
C:   0000282D  C$string_func.c$93$2_0$58          string_func
C:   0000282D  XG$puts_$0$0                       string_func
C:   0000282E  A$string_func$997                  string_func
C:   0000282E  C$string_func.c$95$2_0$61          string_func
C:   0000282E  G$my_printf$0$0                    string_func
C:   0000282E  _my_printf                         string_func
C:   00002830  A$string_func$998                  string_func
C:   00002832  A$string_func$999                  string_func
C:   00002835  A$string_func$1000                 string_func
C:   00002836  A$string_func$1001                 string_func
C:   00002837  A$string_func$1002                 string_func
C:   00002838  A$string_func$1003                 string_func
C:   00002839  A$string_func$1006                 string_func
C:   00002839  C$string_func.c$97$1_0$61          string_func
C:   0000283C  A$string_func$1007                 string_func
C:   0000283D  A$string_func$1008                 string_func
C:   0000283E  A$string_func$1009                 string_func
C:   0000283F  A$string_func$1010                 string_func
C:   00002840  A$string_func$1011                 string_func
C:   00002841  A$string_func$1013                 string_func
C:   00002843  A$string_func$1014                 string_func
C:   00002845  A$string_func$1015                 string_func
C:   00002846  A$string_func$1016                 string_func
C:   00002847  A$string_func$1017                 string_func
C:   00002849  A$string_func$1020                 string_func
C:   00002849  C$string_func.c$99$2_0$62          string_func
C:   0000284B  A$string_func$1021                 string_func
C:   0000284D  A$string_func$1022                 string_func
C:   0000284F  A$string_func$1023                 string_func
C:   00002851  A$string_func$1024                 string_func
ASxxxx Linker V03.00 + NoICE + sdld,  page 51.
Hexadecimal  [32-Bits]

Area                                    Addr        Size        Decimal Bytes (Attributes)
--------------------------------        ----        ----        ------- ----- ------------
CSEG                                00002062    00001C05 =        7173. bytes (REL,CON,CODE)

      Value  Global                              Global Defined In Module
      -----  --------------------------------   ------------------------
C:   00002853  A$string_func$1025                 string_func
C:   00002856  A$string_func$1026                 string_func
C:   00002858  A$string_func$1027                 string_func
C:   0000285A  A$string_func$1030                 string_func
C:   0000285A  C$string_func.c$100$2_0$62         string_func
C:   0000285B  A$string_func$1031                 string_func
C:   0000285E  A$string_func$1032                 string_func
C:   0000285F  A$string_func$1034                 string_func
C:   00002862  A$string_func$1035                 string_func
C:   00002863  A$string_func$1036                 string_func
C:   00002864  A$string_func$1037                 string_func
C:   00002865  A$string_func$1038                 string_func
C:   00002866  A$string_func$1039                 string_func
C:   00002867  A$string_func$1040                 string_func
C:   00002869  A$string_func$1042                 string_func
C:   0000286C  A$string_func$1043                 string_func
C:   0000286D  A$string_func$1044                 string_func
C:   0000286E  A$string_func$1045                 string_func
C:   0000286F  A$string_func$1046                 string_func
C:   00002870  A$string_func$1047                 string_func
C:   00002871  A$string_func$1054                 string_func
C:   00002871  C$string_func.c$102$1_0$61         string_func
C:   00002871  C$string_func.c$103$1_0$61         string_func
C:   00002871  XG$my_printf$0$0                   string_func
C:   00002872  A$uart$805                         uart
C:   00002872  C$uart.c$40$0_0$67                 uart
C:   00002872  C$uart.c$41$1_0$67                 uart
C:   00002872  G$initialize_uart_timer$0$0        uart
C:   00002872  _initialize_uart_timer             uart
C:   00002875  A$uart$808                         uart
C:   00002875  C$uart.c$42$1_0$67                 uart
C:   00002878  A$uart$811                         uart
C:   00002878  C$uart.c$43$1_0$67                 uart
C:   0000287B  A$uart$814                         uart
C:   0000287B  C$uart.c$44$1_0$67                 uart
C:   0000287D  A$uart$815                         uart
C:   0000287F  A$uart$816                         uart
C:   00002881  A$uart$817                         uart
C:   00002883  A$uart$820                         uart
C:   00002883  C$uart.c$45$1_0$67                 uart
C:   00002885  A$uart$821                         uart
C:   00002887  A$uart$822                         uart
C:   00002889  A$uart$823                         uart
C:   0000288B  A$uart$826                         uart
C:   0000288B  C$uart.c$46$1_0$67                 uart
C:   0000288E  A$uart$830                         uart
C:   0000288E  C$uart.c$47$1_0$67                 uart
C:   00002890  A$uart$835                         uart
C:   00002890  C$uart.c$48$1_0$67                 uart
C:   00002890  XG$initialize_uart_timer$0$0       uart
C:   00002891  A$uart$849                         uart
ASxxxx Linker V03.00 + NoICE + sdld,  page 52.
Hexadecimal  [32-Bits]

Area                                    Addr        Size        Decimal Bytes (Attributes)
--------------------------------        ----        ----        ------- ----- ------------
CSEG                                00002062    00001C05 =        7173. bytes (REL,CON,CODE)

      Value  Global                              Global Defined In Module
      -----  --------------------------------   ------------------------
C:   00002891  C$uart.c$50$1_0$69                 uart
C:   00002891  G$int_to_char$0$0                  uart
C:   00002891  _int_to_char                       uart
C:   00002893  A$uart$850                         uart
C:   00002895  A$uart$851                         uart
C:   00002898  A$uart$852                         uart
C:   00002899  A$uart$853                         uart
C:   0000289A  A$uart$854                         uart
C:   0000289B  A$uart$855                         uart
C:   0000289C  A$uart$858                         uart
C:   0000289C  C$uart.c$51$2_0$69                 uart
C:   0000289F  A$uart$859                         uart
C:   000028A1  A$uart$860                         uart
C:   000028A2  A$uart$861                         uart
C:   000028A5  A$uart$862                         uart
C:   000028A6  A$uart$863                         uart
C:   000028A7  A$uart$864                         uart
C:   000028AA  A$uart$865                         uart
C:   000028AB  A$uart$866                         uart
C:   000028AC  A$uart$867                         uart
C:   000028AF  A$uart$868                         uart
C:   000028B0  A$uart$869                         uart
C:   000028B1  A$uart$870                         uart
C:   000028B4  A$uart$871                         uart
C:   000028B5  A$uart$872                         uart
C:   000028B6  A$uart$873                         uart
C:   000028B9  A$uart$874                         uart
C:   000028BA  A$uart$875                         uart
C:   000028BB  A$uart$876                         uart
C:   000028BE  A$uart$877                         uart
C:   000028BF  A$uart$878                         uart
C:   000028C0  A$uart$879                         uart
C:   000028C3  A$uart$880                         uart
C:   000028C4  A$uart$881                         uart
C:   000028C5  A$uart$882                         uart
C:   000028C8  A$uart$883                         uart
C:   000028C9  A$uart$884                         uart
C:   000028CA  A$uart$885                         uart
C:   000028CD  A$uart$886                         uart
C:   000028CE  A$uart$887                         uart
C:   000028CF  A$uart$888                         uart
C:   000028D2  A$uart$889                         uart
C:   000028D4  A$uart$890                         uart
C:   000028D5  A$uart$891                         uart
C:   000028D8  A$uart$892                         uart
C:   000028D9  A$uart$893                         uart
C:   000028DA  A$uart$894                         uart
C:   000028DD  A$uart$895                         uart
C:   000028DE  A$uart$896                         uart
C:   000028DF  A$uart$897                         uart
C:   000028E2  A$uart$898                         uart
ASxxxx Linker V03.00 + NoICE + sdld,  page 53.
Hexadecimal  [32-Bits]

Area                                    Addr        Size        Decimal Bytes (Attributes)
--------------------------------        ----        ----        ------- ----- ------------
CSEG                                00002062    00001C05 =        7173. bytes (REL,CON,CODE)

      Value  Global                              Global Defined In Module
      -----  --------------------------------   ------------------------
C:   000028E3  A$uart$899                         uart
C:   000028E4  A$uart$900                         uart
C:   000028E7  A$uart$901                         uart
C:   000028E8  A$uart$902                         uart
C:   000028E9  A$uart$903                         uart
C:   000028EC  A$uart$904                         uart
C:   000028ED  A$uart$905                         uart
C:   000028EE  A$uart$906                         uart
C:   000028F1  A$uart$907                         uart
C:   000028F2  A$uart$908                         uart
C:   000028F3  A$uart$911                         uart
C:   000028F3  C$uart.c$52$1_0$69                 uart
C:   000028F6  A$uart$912                         uart
C:   000028F7  A$uart$913                         uart
C:   000028F8  A$uart$914                         uart
C:   000028F9  A$uart$915                         uart
C:   000028FA  A$uart$916                         uart
C:   000028FB  A$uart$917                         uart
C:   000028FE  A$uart$918                         uart
C:   000028FF  A$uart$919                         uart
C:   00002901  A$uart$920                         uart
C:   00002902  A$uart$921                         uart
C:   00002904  A$uart$922                         uart
C:   00002906  A$uart$923                         uart
C:   00002909  A$uart$924                         uart
C:   0000290B  A$uart$925                         uart
C:   0000290D  A$uart$928                         uart
C:   0000290D  C$uart.c$53$2_0$70                 uart
C:   0000290E  A$uart$929                         uart
C:   00002910  A$uart$930                         uart
C:   00002912  A$uart$931                         uart
C:   00002913  A$uart$932                         uart
C:   00002915  A$uart$933                         uart
C:   00002917  A$uart$934                         uart
C:   00002918  A$uart$935                         uart
C:   00002919  A$uart$936                         uart
C:   0000291B  A$uart$937                         uart
C:   0000291D  A$uart$941                         uart
C:   0000291D  C$uart.c$55$1_0$69                 uart
C:   00002920  A$uart$947                         uart
C:   00002920  C$uart.c$56$1_0$69                 uart
C:   00002920  XG$int_to_char$0$0                 uart
C:   00002921  A$uart$962                         uart
C:   00002921  C$uart.c$58$1_0$72                 uart
C:   00002921  G$char_to_int$0$0                  uart
C:   00002921  _char_to_int                       uart
C:   00002923  A$uart$963                         uart
C:   00002926  A$uart$964                         uart
C:   00002927  A$uart$969                         uart
C:   00002927  C$uart.c$59$2_0$72                 uart
C:   00002927  C$uart.c$60$1_0$72                 uart
ASxxxx Linker V03.00 + NoICE + sdld,  page 54.
Hexadecimal  [32-Bits]

Area                                    Addr        Size        Decimal Bytes (Attributes)
--------------------------------        ----        ----        ------- ----- ------------
CSEG                                00002062    00001C05 =        7173. bytes (REL,CON,CODE)

      Value  Global                              Global Defined In Module
      -----  --------------------------------   ------------------------
C:   00002928  A$uart$970                         uart
C:   0000292B  A$uart$971                         uart
C:   0000292C  A$uart$972                         uart
C:   0000292F  A$uart$973                         uart
C:   00002932  A$uart$974                         uart
C:   00002935  A$uart$975                         uart
C:   00002937  A$uart$976                         uart
C:   00002939  A$uart$977                         uart
C:   0000293B  A$uart$980                         uart
C:   0000293B  C$uart.c$61$1_0$72                 uart
C:   0000293C  A$uart$981                         uart
C:   0000293D  A$uart$982                         uart
C:   0000293F  A$uart$985                         uart
C:   0000293F  C$uart.c$62$1_0$72                 uart
C:   00002941  A$uart$986                         uart
C:   00002942  A$uart$987                         uart
C:   00002943  A$uart$988                         uart
C:   00002944  A$uart$989                         uart
C:   00002945  A$uart$990                         uart
C:   00002947  A$uart$991                         uart
C:   00002949  A$uart$995                         uart
C:   00002949  C$uart.c$64$1_0$72                 uart
C:   0000294C  A$uart$1001                        uart
C:   0000294C  C$uart.c$65$1_0$72                 uart
C:   0000294C  XG$char_to_int$0$0                 uart
C:   0000294D  A$uart$1019                        uart
C:   0000294D  C$uart.c$67$1_0$75                 uart
C:   0000294D  G$parse_user_input$0$0             uart
C:   0000294D  _parse_user_input                  uart
C:   0000294F  A$uart$1020                        uart
C:   00002952  A$uart$1021                        uart
C:   00002953  A$uart$1024                        uart
C:   00002953  C$uart.c$69$2_0$75                 uart
C:   00002956  A$uart$1025                        uart
C:   00002957  A$uart$1026                        uart
C:   00002958  A$uart$1027                        uart
C:   00002959  A$uart$1028                        uart
C:   0000295A  A$uart$1031                        uart
C:   0000295A  C$uart.c$70$2_0$75                 uart
C:   0000295D  A$uart$1032                        uart
C:   0000295E  A$uart$1033                        uart
C:   0000295F  A$uart$1034                        uart
C:   00002960  A$uart$1035                        uart
C:   00002963  A$uart$1036                        uart
C:   00002964  A$uart$1037                        uart
C:   00002965  A$uart$1038                        uart
C:   00002966  A$uart$1039                        uart
C:   00002969  A$uart$1040                        uart
C:   0000296A  A$uart$1041                        uart
C:   0000296B  A$uart$1042                        uart
C:   0000296C  A$uart$1043                        uart
ASxxxx Linker V03.00 + NoICE + sdld,  page 55.
Hexadecimal  [32-Bits]

Area                                    Addr        Size        Decimal Bytes (Attributes)
--------------------------------        ----        ----        ------- ----- ------------
CSEG                                00002062    00001C05 =        7173. bytes (REL,CON,CODE)

      Value  Global                              Global Defined In Module
      -----  --------------------------------   ------------------------
C:   0000296F  A$uart$1044                        uart
C:   00002970  A$uart$1045                        uart
C:   00002971  A$uart$1046                        uart
C:   00002972  A$uart$1047                        uart
C:   00002975  A$uart$1048                        uart
C:   00002976  A$uart$1049                        uart
C:   00002977  A$uart$1050                        uart
C:   00002978  A$uart$1051                        uart
C:   0000297B  A$uart$1052                        uart
C:   0000297C  A$uart$1053                        uart
C:   0000297D  A$uart$1054                        uart
C:   0000297E  A$uart$1055                        uart
C:   00002981  A$uart$1056                        uart
C:   00002982  A$uart$1057                        uart
C:   00002983  A$uart$1058                        uart
C:   00002984  A$uart$1059                        uart
C:   00002987  A$uart$1060                        uart
C:   00002988  A$uart$1061                        uart
C:   00002989  A$uart$1062                        uart
C:   0000298A  A$uart$1063                        uart
C:   0000298D  A$uart$1064                        uart
C:   0000298E  A$uart$1065                        uart
C:   0000298F  A$uart$1066                        uart
C:   00002990  A$uart$1067                        uart
C:   00002993  A$uart$1068                        uart
C:   00002994  A$uart$1069                        uart
C:   00002995  A$uart$1070                        uart
C:   00002996  A$uart$1071                        uart
C:   00002999  A$uart$1072                        uart
C:   0000299A  A$uart$1073                        uart
C:   0000299B  A$uart$1074                        uart
C:   0000299C  A$uart$1075                        uart
C:   0000299F  A$uart$1076                        uart
C:   000029A0  A$uart$1077                        uart
C:   000029A1  A$uart$1078                        uart
C:   000029A2  A$uart$1079                        uart
C:   000029A5  A$uart$1080                        uart
C:   000029A6  A$uart$1081                        uart
C:   000029A7  A$uart$1082                        uart
C:   000029A8  A$uart$1083                        uart
C:   000029AB  A$uart$1084                        uart
C:   000029AC  A$uart$1085                        uart
C:   000029AD  A$uart$1086                        uart
C:   000029AE  A$uart$1087                        uart
C:   000029B1  A$uart$1088                        uart
C:   000029B2  A$uart$1089                        uart
C:   000029B3  A$uart$1090                        uart
C:   000029B4  A$uart$1091                        uart
C:   000029B7  A$uart$1092                        uart
C:   000029B8  A$uart$1093                        uart
C:   000029B9  A$uart$1094                        uart
ASxxxx Linker V03.00 + NoICE + sdld,  page 56.
Hexadecimal  [32-Bits]

Area                                    Addr        Size        Decimal Bytes (Attributes)
--------------------------------        ----        ----        ------- ----- ------------
CSEG                                00002062    00001C05 =        7173. bytes (REL,CON,CODE)

      Value  Global                              Global Defined In Module
      -----  --------------------------------   ------------------------
C:   000029BA  A$uart$1095                        uart
C:   000029BD  A$uart$1096                        uart
C:   000029BE  A$uart$1097                        uart
C:   000029BF  A$uart$1098                        uart
C:   000029C0  A$uart$1099                        uart
C:   000029C3  A$uart$1100                        uart
C:   000029C4  A$uart$1101                        uart
C:   000029C5  A$uart$1102                        uart
C:   000029C6  A$uart$1103                        uart
C:   000029C9  A$uart$1104                        uart
C:   000029CA  A$uart$1105                        uart
C:   000029CB  A$uart$1106                        uart
C:   000029CC  A$uart$1107                        uart
C:   000029CF  A$uart$1108                        uart
C:   000029D0  A$uart$1109                        uart
C:   000029D1  A$uart$1110                        uart
C:   000029D2  A$uart$1113                        uart
C:   000029D2  C$uart.c$71$2_0$75                 uart
C:   000029D5  A$uart$1114                        uart
C:   000029D6  A$uart$1115                        uart
C:   000029D7  A$uart$1116                        uart
C:   000029D8  A$uart$1119                        uart
C:   000029D8  C$uart.c$73$2_0$75                 uart
C:   000029DB  A$uart$1120                        uart
C:   000029DC  A$uart$1121                        uart
C:   000029DD  A$uart$1122                        uart
C:   000029DE  A$uart$1126                        uart
C:   000029DE  C$uart.c$75$1_0$75                 uart
C:   000029E1  A$uart$1127                        uart
C:   000029E2  A$uart$1128                        uart
C:   000029E3  A$uart$1129                        uart
C:   000029E4  A$uart$1130                        uart
C:   000029E5  A$uart$1131                        uart
C:   000029E6  A$uart$1132                        uart
C:   000029E9  A$uart$1133                        uart
C:   000029EC  A$uart$1134                        uart
C:   000029EF  A$uart$1138                        uart
C:   000029EF  C$uart.c$76$2_0$76                 uart
C:   000029F2  A$uart$1139                        uart
C:   000029F4  A$uart$1140                        uart
C:   000029F6  A$uart$1141                        uart
C:   000029F9  A$uart$1142                        uart
C:   000029FA  A$uart$1143                        uart
C:   000029FB  A$uart$1144                        uart
C:   000029FC  A$uart$1145                        uart
C:   000029FD  A$uart$1146                        uart
C:   000029FE  A$uart$1149                        uart
C:   000029FE  C$uart.c$78$2_0$76                 uart
C:   00002A00  A$uart$1150                        uart
C:   00002A02  A$uart$1151                        uart
C:   00002A03  A$uart$1152                        uart
ASxxxx Linker V03.00 + NoICE + sdld,  page 57.
Hexadecimal  [32-Bits]

Area                                    Addr        Size        Decimal Bytes (Attributes)
--------------------------------        ----        ----        ------- ----- ------------
CSEG                                00002062    00001C05 =        7173. bytes (REL,CON,CODE)

      Value  Global                              Global Defined In Module
      -----  --------------------------------   ------------------------
C:   00002A04  A$uart$1153                        uart
C:   00002A06  A$uart$1154                        uart
C:   00002A07  A$uart$1155                        uart
C:   00002A09  A$uart$1156                        uart
C:   00002A0B  A$uart$1157                        uart
C:   00002A0D  A$uart$1158                        uart
C:   00002A0E  A$uart$1159                        uart
C:   00002A0F  A$uart$1160                        uart
C:   00002A10  A$uart$1161                        uart
C:   00002A12  A$uart$1165                        uart
C:   00002A12  C$uart.c$79$2_0$76                 uart
C:   00002A13  A$uart$1166                        uart
C:   00002A14  A$uart$1167                        uart
C:   00002A16  A$uart$1168                        uart
C:   00002A17  A$uart$1169                        uart
C:   00002A19  A$uart$1170                        uart
C:   00002A1B  A$uart$1171                        uart
C:   00002A1D  A$uart$1172                        uart
C:   00002A1E  A$uart$1173                        uart
C:   00002A1F  A$uart$1174                        uart
C:   00002A20  A$uart$1175                        uart
C:   00002A22  A$uart$1179                        uart
C:   00002A22  C$uart.c$80$2_0$76                 uart
C:   00002A23  A$uart$1180                        uart
C:   00002A24  A$uart$1181                        uart
C:   00002A26  A$uart$1182                        uart
C:   00002A27  A$uart$1183                        uart
C:   00002A29  A$uart$1184                        uart
C:   00002A2B  A$uart$1185                        uart
C:   00002A2D  A$uart$1186                        uart
C:   00002A2E  A$uart$1187                        uart
C:   00002A2F  A$uart$1188                        uart
C:   00002A30  A$uart$1189                        uart
C:   00002A32  A$uart$1193                        uart
C:   00002A32  C$uart.c$82$3_0$77                 uart
C:   00002A34  A$uart$1194                        uart
C:   00002A36  A$uart$1195                        uart
C:   00002A38  A$uart$1196                        uart
C:   00002A3A  A$uart$1197                        uart
C:   00002A3C  A$uart$1198                        uart
C:   00002A3E  A$uart$1199                        uart
C:   00002A41  A$uart$1200                        uart
C:   00002A43  A$uart$1201                        uart
C:   00002A45  A$uart$1204                        uart
C:   00002A45  C$uart.c$83$3_0$77                 uart
C:   00002A48  A$uart$1205                        uart
C:   00002A49  A$uart$1206                        uart
C:   00002A4A  A$uart$1207                        uart
C:   00002A4B  A$uart$1208                        uart
C:   00002A4C  A$uart$1209                        uart
C:   00002A4D  A$uart$1210                        uart
ASxxxx Linker V03.00 + NoICE + sdld,  page 58.
Hexadecimal  [32-Bits]

Area                                    Addr        Size        Decimal Bytes (Attributes)
--------------------------------        ----        ----        ------- ----- ------------
CSEG                                00002062    00001C05 =        7173. bytes (REL,CON,CODE)

      Value  Global                              Global Defined In Module
      -----  --------------------------------   ------------------------
C:   00002A4E  A$uart$1211                        uart
C:   00002A4F  A$uart$1212                        uart
C:   00002A50  A$uart$1213                        uart
C:   00002A51  A$uart$1214                        uart
C:   00002A52  A$uart$1215                        uart
C:   00002A53  A$uart$1216                        uart
C:   00002A54  A$uart$1217                        uart
C:   00002A56  A$uart$1218                        uart
C:   00002A57  A$uart$1219                        uart
C:   00002A58  A$uart$1220                        uart
C:   00002A5A  A$uart$1221                        uart
C:   00002A5B  A$uart$1222                        uart
C:   00002A5D  A$uart$1223                        uart
C:   00002A5F  A$uart$1224                        uart
C:   00002A61  A$uart$1225                        uart
C:   00002A63  A$uart$1226                        uart
C:   00002A65  A$uart$1227                        uart
C:   00002A68  A$uart$1228                        uart
C:   00002A6A  A$uart$1229                        uart
C:   00002A6C  A$uart$1230                        uart
C:   00002A6E  A$uart$1231                        uart
C:   00002A70  A$uart$1232                        uart
C:   00002A72  A$uart$1233                        uart
C:   00002A74  A$uart$1234                        uart
C:   00002A76  A$uart$1235                        uart
C:   00002A78  A$uart$1236                        uart
C:   00002A79  A$uart$1237                        uart
C:   00002A7A  A$uart$1238                        uart
C:   00002A7B  A$uart$1239                        uart
C:   00002A7C  A$uart$1240                        uart
C:   00002A7D  A$uart$1243                        uart
C:   00002A7D  C$uart.c$84$3_0$77                 uart
C:   00002A80  A$uart$1244                        uart
C:   00002A81  A$uart$1245                        uart
C:   00002A82  A$uart$1246                        uart
C:   00002A83  A$uart$1247                        uart
C:   00002A84  A$uart$1248                        uart
C:   00002A85  A$uart$1249                        uart
C:   00002A86  A$uart$1250                        uart
C:   00002A87  A$uart$1251                        uart
C:   00002A8A  A$uart$1255                        uart
C:   00002A8A  C$uart.c$86$2_0$76                 uart
C:   00002A8D  A$uart$1256                        uart
C:   00002A90  A$uart$1257                        uart
C:   00002A92  A$uart$1259                        uart
C:   00002A95  A$uart$1263                        uart
C:   00002A95  C$uart.c$88$3_0$78                 uart
C:   00002A98  A$uart$1264                        uart
C:   00002A99  A$uart$1265                        uart
C:   00002A9A  A$uart$1266                        uart
C:   00002A9B  A$uart$1267                        uart
ASxxxx Linker V03.00 + NoICE + sdld,  page 59.
Hexadecimal  [32-Bits]

Area                                    Addr        Size        Decimal Bytes (Attributes)
--------------------------------        ----        ----        ------- ----- ------------
CSEG                                00002062    00001C05 =        7173. bytes (REL,CON,CODE)

      Value  Global                              Global Defined In Module
      -----  --------------------------------   ------------------------
C:   00002A9C  A$uart$1268                        uart
C:   00002A9D  A$uart$1269                        uart
C:   00002AA0  A$uart$1270                        uart
C:   00002AA1  A$uart$1271                        uart
C:   00002AA3  A$uart$1272                        uart
C:   00002AA4  A$uart$1273                        uart
C:   00002AA5  A$uart$1274                        uart
C:   00002AA7  A$uart$1275                        uart
C:   00002AA9  A$uart$1276                        uart
C:   00002AAC  A$uart$1280                        uart
C:   00002AAC  C$uart.c$90$4_0$79                 uart
C:   00002AAF  A$uart$1281                        uart
C:   00002AB1  A$uart$1282                        uart
C:   00002AB3  A$uart$1283                        uart
C:   00002AB6  A$uart$1286                        uart
C:   00002AB6  C$uart.c$91$4_0$79                 uart
C:   00002AB9  A$uart$1287                        uart
C:   00002ABC  A$uart$1290                        uart
C:   00002ABC  C$uart.c$92$4_0$79                 uart
C:   00002ABF  A$uart$1291                        uart
C:   00002AC2  A$uart$1292                        uart
C:   00002AC4  A$uart$1293                        uart
C:   00002AC6  A$uart$1296                        uart
C:   00002AC6  C$uart.c$93$4_0$79                 uart
C:   00002AC7  A$uart$1297                        uart
C:   00002ACA  A$uart$1298                        uart
C:   00002ACB  A$uart$1300                        uart
C:   00002ACE  A$uart$1301                        uart
C:   00002ACF  A$uart$1302                        uart
C:   00002AD0  A$uart$1303                        uart
C:   00002AD1  A$uart$1304                        uart
C:   00002AD2  A$uart$1305                        uart
C:   00002AD3  A$uart$1306                        uart
C:   00002AD6  A$uart$1310                        uart
C:   00002AD6  C$uart.c$98$1_0$75                 uart
C:   00002AD9  A$uart$1311                        uart
C:   00002ADA  A$uart$1312                        uart
C:   00002ADB  A$uart$1313                        uart
C:   00002ADE  A$uart$1314                        uart
C:   00002ADF  A$uart$1315                        uart
C:   00002AE0  A$uart$1316                        uart
C:   00002AE1  A$uart$1317                        uart
C:   00002AE2  A$uart$1318                        uart
C:   00002AE3  A$uart$1319                        uart
C:   00002AE5  A$uart$1320                        uart
C:   00002AE7  A$uart$1322                        uart
C:   00002AE8  A$uart$1323                        uart
C:   00002AE9  A$uart$1324                        uart
C:   00002AEA  A$uart$1325                        uart
C:   00002AEB  A$uart$1326                        uart
C:   00002AEC  A$uart$1327                        uart
ASxxxx Linker V03.00 + NoICE + sdld,  page 60.
Hexadecimal  [32-Bits]

Area                                    Addr        Size        Decimal Bytes (Attributes)
--------------------------------        ----        ----        ------- ----- ------------
CSEG                                00002062    00001C05 =        7173. bytes (REL,CON,CODE)

      Value  Global                              Global Defined In Module
      -----  --------------------------------   ------------------------
C:   00002AEE  A$uart$1330                        uart
C:   00002AEE  C$uart.c$100$1_0$75                uart
C:   00002AF0  A$uart$1331                        uart
C:   00002AF2  A$uart$1332                        uart
C:   00002AF5  A$uart$1333                        uart
C:   00002AF6  A$uart$1334                        uart
C:   00002AF7  A$uart$1335                        uart
C:   00002AF8  A$uart$1336                        uart
C:   00002AF9  A$uart$1337                        uart
C:   00002AFA  A$uart$1338                        uart
C:   00002AFD  A$uart$1339                        uart
C:   00002AFE  A$uart$1340                        uart
C:   00002AFF  A$uart$1341                        uart
C:   00002B00  A$uart$1342                        uart
C:   00002B01  A$uart$1343                        uart
C:   00002B02  A$uart$1344                        uart
C:   00002B04  A$uart$1345                        uart
C:   00002B06  A$uart$1346                        uart
C:   00002B08  A$uart$1347                        uart
C:   00002B0A  A$uart$1348                        uart
C:   00002B0C  A$uart$1349                        uart
C:   00002B0E  A$uart$1350                        uart
C:   00002B10  A$uart$1351                        uart
C:   00002B13  A$uart$1352                        uart
C:   00002B15  A$uart$1353                        uart
C:   00002B18  A$uart$1354                        uart
C:   00002B1A  A$uart$1355                        uart
C:   00002B1C  A$uart$1356                        uart
C:   00002B1E  A$uart$1357                        uart
C:   00002B20  A$uart$1358                        uart
C:   00002B22  A$uart$1359                        uart
C:   00002B25  A$uart$1360                        uart
C:   00002B26  A$uart$1361                        uart
C:   00002B28  A$uart$1362                        uart
C:   00002B29  A$uart$1363                        uart
C:   00002B2A  A$uart$1366                        uart
C:   00002B2A  C$uart.c$101$3_0$81                uart
C:   00002B2B  A$uart$1367                        uart
C:   00002B2C  A$uart$1368                        uart
C:   00002B2D  A$uart$1369                        uart
C:   00002B2E  A$uart$1370                        uart
C:   00002B2F  A$uart$1371                        uart
C:   00002B30  A$uart$1372                        uart
C:   00002B31  A$uart$1373                        uart
C:   00002B33  A$uart$1374                        uart
C:   00002B35  A$uart$1375                        uart
C:   00002B36  A$uart$1376                        uart
C:   00002B38  A$uart$1377                        uart
C:   00002B3A  A$uart$1378                        uart
C:   00002B3B  A$uart$1379                        uart
C:   00002B3C  A$uart$1380                        uart
ASxxxx Linker V03.00 + NoICE + sdld,  page 61.
Hexadecimal  [32-Bits]

Area                                    Addr        Size        Decimal Bytes (Attributes)
--------------------------------        ----        ----        ------- ----- ------------
CSEG                                00002062    00001C05 =        7173. bytes (REL,CON,CODE)

      Value  Global                              Global Defined In Module
      -----  --------------------------------   ------------------------
C:   00002B3D  A$uart$1381                        uart
C:   00002B3E  A$uart$1382                        uart
C:   00002B3F  A$uart$1383                        uart
C:   00002B42  A$uart$1384                        uart
C:   00002B43  A$uart$1385                        uart
C:   00002B44  A$uart$1386                        uart
C:   00002B45  A$uart$1387                        uart
C:   00002B46  A$uart$1388                        uart
C:   00002B47  A$uart$1389                        uart
C:   00002B4A  A$uart$1390                        uart
C:   00002B4B  A$uart$1391                        uart
C:   00002B4C  A$uart$1392                        uart
C:   00002B4D  A$uart$1393                        uart
C:   00002B4E  A$uart$1394                        uart
C:   00002B4F  A$uart$1395                        uart
C:   00002B50  A$uart$1396                        uart
C:   00002B51  A$uart$1399                        uart
C:   00002B51  C$uart.c$98$2_0$80                 uart
C:   00002B52  A$uart$1400                        uart
C:   00002B55  A$uart$1401                        uart
C:   00002B56  A$uart$1403                        uart
C:   00002B58  A$uart$1404                        uart
C:   00002B5A  A$uart$1405                        uart
C:   00002B5C  A$uart$1409                        uart
C:   00002B5C  C$uart.c$103$1_0$75                uart
C:   00002B5F  A$uart$1410                        uart
C:   00002B60  A$uart$1411                        uart
C:   00002B61  A$uart$1412                        uart
C:   00002B62  A$uart$1413                        uart
C:   00002B63  A$uart$1418                        uart
C:   00002B63  C$uart.c$104$1_0$75                uart
C:   00002B63  XG$parse_user_input$0$0            uart
C:   00002B65  A$uart$1419                        uart
C:   00002B67  A$uart$1420                        uart
C:   00002B68  A$uart$1440                        uart
C:   00002B68  C$uart.c$162$1_0$83                uart
C:   00002B68  G$print_hex_number$0$0             uart
C:   00002B68  _print_hex_number                  uart
C:   00002B6A  A$uart$1441                        uart
C:   00002B6C  A$uart$1442                        uart
C:   00002B6E  A$uart$1443                        uart
C:   00002B6F  A$uart$1444                        uart
C:   00002B72  A$uart$1445                        uart
C:   00002B73  A$uart$1446                        uart
C:   00002B74  A$uart$1447                        uart
C:   00002B75  A$uart$1448                        uart
C:   00002B76  A$uart$1449                        uart
C:   00002B77  A$uart$1450                        uart
C:   00002B78  A$uart$1451                        uart
C:   00002B79  A$uart$1452                        uart
C:   00002B7A  A$uart$1453                        uart
ASxxxx Linker V03.00 + NoICE + sdld,  page 62.
Hexadecimal  [32-Bits]

Area                                    Addr        Size        Decimal Bytes (Attributes)
--------------------------------        ----        ----        ------- ----- ------------
CSEG                                00002062    00001C05 =        7173. bytes (REL,CON,CODE)

      Value  Global                              Global Defined In Module
      -----  --------------------------------   ------------------------
C:   00002B7B  A$uart$1454                        uart
C:   00002B7C  A$uart$1455                        uart
C:   00002B7D  A$uart$1458                        uart
C:   00002B80  A$uart$1459                        uart
C:   00002B81  A$uart$1460                        uart
C:   00002B82  A$uart$1461                        uart
C:   00002B85  A$uart$1462                        uart
C:   00002B86  A$uart$1463                        uart
C:   00002B87  A$uart$1464                        uart
C:   00002B88  A$uart$1465                        uart
C:   00002B89  A$uart$1466                        uart
C:   00002B8A  A$uart$1467                        uart
C:   00002B8B  A$uart$1468                        uart
C:   00002B8C  A$uart$1469                        uart
C:   00002B8D  A$uart$1470                        uart
C:   00002B8E  A$uart$1471                        uart
C:   00002B8F  A$uart$1472                        uart
C:   00002B90  A$uart$1473                        uart
C:   00002B91  A$uart$1474                        uart
C:   00002B93  A$uart$1475                        uart
C:   00002B94  A$uart$1476                        uart
C:   00002B95  A$uart$1477                        uart
C:   00002B96  A$uart$1478                        uart
C:   00002B97  A$uart$1479                        uart
C:   00002B98  A$uart$1480                        uart
C:   00002B99  A$uart$1481                        uart
C:   00002B9A  A$uart$1482                        uart
C:   00002B9C  A$uart$1483                        uart
C:   00002B9D  A$uart$1484                        uart
C:   00002B9F  A$uart$1485                        uart
C:   00002BA0  A$uart$1486                        uart
C:   00002BA1  A$uart$1487                        uart
C:   00002BA2  A$uart$1488                        uart
C:   00002BA3  A$uart$1489                        uart
C:   00002BA4  A$uart$1490                        uart
C:   00002BA5  A$uart$1491                        uart
C:   00002BA6  A$uart$1492                        uart
C:   00002BA8  A$uart$1493                        uart
C:   00002BA9  A$uart$1494                        uart
C:   00002BAB  A$uart$1495                        uart
C:   00002BAC  A$uart$1496                        uart
C:   00002BAE  A$uart$1497                        uart
C:   00002BAF  A$uart$1498                        uart
C:   00002BB0  A$uart$1499                        uart
C:   00002BB1  A$uart$1500                        uart
C:   00002BB2  A$uart$1501                        uart
C:   00002BB3  A$uart$1502                        uart
C:   00002BB5  A$uart$1504                        uart
C:   00002BB6  A$uart$1505                        uart
C:   00002BB8  A$uart$1506                        uart
C:   00002BBA  A$uart$1507                        uart
ASxxxx Linker V03.00 + NoICE + sdld,  page 63.
Hexadecimal  [32-Bits]

Area                                    Addr        Size        Decimal Bytes (Attributes)
--------------------------------        ----        ----        ------- ----- ------------
CSEG                                00002062    00001C05 =        7173. bytes (REL,CON,CODE)

      Value  Global                              Global Defined In Module
      -----  --------------------------------   ------------------------
C:   00002BBD  A$uart$1508                        uart
C:   00002BBF  A$uart$1509                        uart
C:   00002BC1  A$uart$1512                        uart
C:   00002BC1  C$uart.c$168$3_0$85                uart
C:   00002BC4  A$uart$1513                        uart
C:   00002BC6  A$uart$1515                        uart
C:   00002BC9  A$uart$1516                        uart
C:   00002BCB  A$uart$1518                        uart
C:   00002BCE  A$uart$1521                        uart
C:   00002BCE  C$uart.c$171$4_0$86                uart
C:   00002BD1  A$uart$1524                        uart
C:   00002BD1  C$uart.c$172$5_0$87                uart
C:   00002BD4  A$uart$1525                        uart
C:   00002BD6  A$uart$1526                        uart
C:   00002BD9  A$uart$1527                        uart
C:   00002BDB  A$uart$1532                        uart
C:   00002BDB  C$uart.c$174$4_0$86                uart
C:   00002BDB  C$uart.c$175$4_0$86                uart
C:   00002BDD  A$uart$1536                        uart
C:   00002BDD  C$uart.c$177$4_0$86                uart
C:   00002BE0  A$uart$1539                        uart
C:   00002BE0  C$uart.c$178$5_0$88                uart
C:   00002BE3  A$uart$1540                        uart
C:   00002BE5  A$uart$1541                        uart
C:   00002BE8  A$uart$1542                        uart
C:   00002BEA  A$uart$1547                        uart
C:   00002BEA  C$uart.c$180$4_0$86                uart
C:   00002BEA  C$uart.c$181$4_0$86                uart
C:   00002BEC  A$uart$1551                        uart
C:   00002BEC  C$uart.c$183$4_0$86                uart
C:   00002BEF  A$uart$1554                        uart
C:   00002BEF  C$uart.c$184$5_0$89                uart
C:   00002BF2  A$uart$1555                        uart
C:   00002BF4  A$uart$1556                        uart
C:   00002BF7  A$uart$1557                        uart
C:   00002BF9  A$uart$1563                        uart
C:   00002BF9  C$uart.c$167$2_0$84                uart
C:   00002BF9  C$uart.c$187$3_0$85                uart
C:   00002BFA  A$uart$1566                        uart
C:   00002BFA  C$uart.c$190$2_0$83                uart
C:   00002BFC  A$uart$1571                        uart
C:   00002BFC  C$uart.c$191$2_0$90                uart
C:   00002BFD  A$uart$1572                        uart
C:   00002BFE  A$uart$1573                        uart
C:   00002BFF  A$uart$1574                        uart
C:   00002C01  A$uart$1575                        uart
C:   00002C02  A$uart$1576                        uart
C:   00002C03  A$uart$1577                        uart
C:   00002C05  A$uart$1578                        uart
C:   00002C07  A$uart$1579                        uart
C:   00002C08  A$uart$1580                        uart
ASxxxx Linker V03.00 + NoICE + sdld,  page 64.
Hexadecimal  [32-Bits]

Area                                    Addr        Size        Decimal Bytes (Attributes)
--------------------------------        ----        ----        ------- ----- ------------
CSEG                                00002062    00001C05 =        7173. bytes (REL,CON,CODE)

      Value  Global                              Global Defined In Module
      -----  --------------------------------   ------------------------
C:   00002C0A  A$uart$1581                        uart
C:   00002C0C  A$uart$1582                        uart
C:   00002C0F  A$uart$1583                        uart
C:   00002C10  A$uart$1584                        uart
C:   00002C12  A$uart$1585                        uart
C:   00002C13  A$uart$1586                        uart
C:   00002C14  A$uart$1587                        uart
C:   00002C16  A$uart$1588                        uart
C:   00002C17  A$uart$1589                        uart
C:   00002C18  A$uart$1590                        uart
C:   00002C1A  A$uart$1591                        uart
C:   00002C1B  A$uart$1592                        uart
C:   00002C1C  A$uart$1593                        uart
C:   00002C1E  A$uart$1594                        uart
C:   00002C20  A$uart$1595                        uart
C:   00002C22  A$uart$1596                        uart
C:   00002C23  A$uart$1597                        uart
C:   00002C25  A$uart$1598                        uart
C:   00002C27  A$uart$1599                        uart
C:   00002C29  A$uart$1600                        uart
C:   00002C2B  A$uart$1601                        uart
C:   00002C2E  A$uart$1602                        uart
C:   00002C30  A$uart$1603                        uart
C:   00002C32  A$uart$1604                        uart
C:   00002C35  A$uart$1605                        uart
C:   00002C38  A$uart$1606                        uart
C:   00002C39  A$uart$1607                        uart
C:   00002C3A  A$uart$1610                        uart
C:   00002C3A  C$uart.c$192$2_0$90                uart
C:   00002C3C  A$uart$1611                        uart
C:   00002C3E  A$uart$1612                        uart
C:   00002C3F  A$uart$1613                        uart
C:   00002C40  A$uart$1614                        uart
C:   00002C41  A$uart$1615                        uart
C:   00002C43  A$uart$1616                        uart
C:   00002C44  A$uart$1617                        uart
C:   00002C45  A$uart$1618                        uart
C:   00002C47  A$uart$1619                        uart
C:   00002C48  A$uart$1620                        uart
C:   00002C49  A$uart$1621                        uart
C:   00002C4A  A$uart$1622                        uart
C:   00002C4B  A$uart$1623                        uart
C:   00002C4D  A$uart$1624                        uart
C:   00002C4E  A$uart$1625                        uart
C:   00002C50  A$uart$1626                        uart
C:   00002C51  A$uart$1627                        uart
C:   00002C52  A$uart$1628                        uart
C:   00002C54  A$uart$1629                        uart
C:   00002C56  A$uart$1630                        uart
C:   00002C57  A$uart$1631                        uart
C:   00002C58  A$uart$1632                        uart
ASxxxx Linker V03.00 + NoICE + sdld,  page 65.
Hexadecimal  [32-Bits]

Area                                    Addr        Size        Decimal Bytes (Attributes)
--------------------------------        ----        ----        ------- ----- ------------
CSEG                                00002062    00001C05 =        7173. bytes (REL,CON,CODE)

      Value  Global                              Global Defined In Module
      -----  --------------------------------   ------------------------
C:   00002C59  A$uart$1633                        uart
C:   00002C5B  A$uart$1634                        uart
C:   00002C5C  A$uart$1635                        uart
C:   00002C5D  A$uart$1636                        uart
C:   00002C5F  A$uart$1637                        uart
C:   00002C60  A$uart$1638                        uart
C:   00002C61  A$uart$1639                        uart
C:   00002C62  A$uart$1640                        uart
C:   00002C63  A$uart$1641                        uart
C:   00002C66  A$uart$1642                        uart
C:   00002C67  A$uart$1643                        uart
C:   00002C68  A$uart$1644                        uart
C:   00002C69  A$uart$1645                        uart
C:   00002C6A  A$uart$1646                        uart
C:   00002C6B  A$uart$1647                        uart
C:   00002C6C  A$uart$1648                        uart
C:   00002C6D  A$uart$1649                        uart
C:   00002C6E  A$uart$1650                        uart
C:   00002C6F  A$uart$1651                        uart
C:   00002C70  A$uart$1652                        uart
C:   00002C71  A$uart$1655                        uart
C:   00002C71  C$uart.c$193$2_0$90                uart
C:   00002C72  A$uart$1658                        uart
C:   00002C72  C$uart.c$194$1_0$83                uart
C:   00002C75  A$uart$1659                        uart
C:   00002C76  A$uart$1660                        uart
C:   00002C78  A$uart$1661                        uart
C:   00002C79  A$uart$1662                        uart
C:   00002C7A  A$uart$1663                        uart
C:   00002C7C  A$uart$1664                        uart
C:   00002C7D  A$uart$1665                        uart
C:   00002C7E  A$uart$1666                        uart
C:   00002C80  A$uart$1667                        uart
C:   00002C81  A$uart$1668                        uart
C:   00002C82  A$uart$1669                        uart
C:   00002C84  A$uart$1670                        uart
C:   00002C86  A$uart$1671                        uart
C:   00002C89  A$uart$1675                        uart
C:   00002C8A  A$uart$1676                        uart
C:   00002C8B  A$uart$1677                        uart
C:   00002C8E  A$uart$1678                        uart
C:   00002C8F  A$uart$1679                        uart
C:   00002C90  A$uart$1680                        uart
C:   00002C91  A$uart$1682                        uart
C:   00002C92  A$uart$1683                        uart
C:   00002C95  A$uart$1686                        uart
C:   00002C95  C$uart.c$197$3_0$92                uart
C:   00002C96  A$uart$1687                        uart
C:   00002C97  A$uart$1688                        uart
C:   00002C98  A$uart$1689                        uart
C:   00002C9A  A$uart$1690                        uart
ASxxxx Linker V03.00 + NoICE + sdld,  page 66.
Hexadecimal  [32-Bits]

Area                                    Addr        Size        Decimal Bytes (Attributes)
--------------------------------        ----        ----        ------- ----- ------------
CSEG                                00002062    00001C05 =        7173. bytes (REL,CON,CODE)

      Value  Global                              Global Defined In Module
      -----  --------------------------------   ------------------------
C:   00002C9B  A$uart$1691                        uart
C:   00002C9C  A$uart$1692                        uart
C:   00002C9E  A$uart$1693                        uart
C:   00002CA0  A$uart$1694                        uart
C:   00002CA1  A$uart$1695                        uart
C:   00002CA3  A$uart$1696                        uart
C:   00002CA5  A$uart$1697                        uart
C:   00002CA6  A$uart$1698                        uart
C:   00002CA7  A$uart$1699                        uart
C:   00002CA9  A$uart$1700                        uart
C:   00002CAB  A$uart$1701                        uart
C:   00002CAD  A$uart$1702                        uart
C:   00002CAF  A$uart$1703                        uart
C:   00002CB2  A$uart$1704                        uart
C:   00002CB4  A$uart$1707                        uart
C:   00002CB4  C$uart.c$196$2_0$91                uart
C:   00002CB5  A$uart$1708                        uart
C:   00002CB7  A$uart$1714                        uart
C:   00002CB7  C$uart.c$199$2_0$83                uart
C:   00002CB7  XG$print_hex_number$0$0            uart
C:   00002CB8  A$uart$1728                        uart
C:   00002CB8  C$uart.c$202$2_0$94                uart
C:   00002CB8  G$print_colored$0$0                uart
C:   00002CB8  _print_colored                     uart
C:   00002CBA  A$uart$1729                        uart
C:   00002CBC  A$uart$1730                        uart
C:   00002CBE  A$uart$1731                        uart
C:   00002CC1  A$uart$1732                        uart
C:   00002CC2  A$uart$1733                        uart
C:   00002CC3  A$uart$1734                        uart
C:   00002CC4  A$uart$1735                        uart
C:   00002CC5  A$uart$1736                        uart
C:   00002CC6  A$uart$1737                        uart
C:   00002CC7  A$uart$1738                        uart
C:   00002CC8  A$uart$1741                        uart
C:   00002CC8  C$uart.c$203$1_0$94                uart
C:   00002CCB  A$uart$1742                        uart
C:   00002CCC  A$uart$1743                        uart
C:   00002CCE  A$uart$1744                        uart
C:   00002CCF  A$uart$1745                        uart
C:   00002CD0  A$uart$1746                        uart
C:   00002CD2  A$uart$1747                        uart
C:   00002CD3  A$uart$1748                        uart
C:   00002CD4  A$uart$1749                        uart
C:   00002CD6  A$uart$1750                        uart
C:   00002CD9  A$uart$1751                        uart
C:   00002CDA  A$uart$1752                        uart
C:   00002CDC  A$uart$1753                        uart
C:   00002CDD  A$uart$1754                        uart
C:   00002CDE  A$uart$1755                        uart
C:   00002CE0  A$uart$1756                        uart
ASxxxx Linker V03.00 + NoICE + sdld,  page 67.
Hexadecimal  [32-Bits]

Area                                    Addr        Size        Decimal Bytes (Attributes)
--------------------------------        ----        ----        ------- ----- ------------
CSEG                                00002062    00001C05 =        7173. bytes (REL,CON,CODE)

      Value  Global                              Global Defined In Module
      -----  --------------------------------   ------------------------
C:   00002CE2  A$uart$1757                        uart
C:   00002CE4  A$uart$1758                        uart
C:   00002CE6  A$uart$1759                        uart
C:   00002CE8  A$uart$1760                        uart
C:   00002CEA  A$uart$1761                        uart
C:   00002CEC  A$uart$1762                        uart
C:   00002CEF  A$uart$1763                        uart
C:   00002CF1  A$uart$1764                        uart
C:   00002CF3  A$uart$1765                        uart
C:   00002CF5  A$uart$1770                        uart
C:   00002CF5  C$uart.c$204$1_0$94                uart
C:   00002CF5  XG$print_colored$0$0               uart
C:   00002CF6  A$uart$1783                        uart
C:   00002CF6  C$uart.c$205$1_0$96                uart
C:   00002CF6  C$uart.c$207$1_0$96                uart
C:   00002CF6  G$print_UI$0$0                     uart
C:   00002CF6  _print_UI                          uart
C:   00002CF8  A$uart$1784                        uart
C:   00002CFA  A$uart$1785                        uart
C:   00002CFC  A$uart$1786                        uart
C:   00002CFE  A$uart$1787                        uart
C:   00002D00  A$uart$1788                        uart
C:   00002D02  A$uart$1789                        uart
C:   00002D05  A$uart$1790                        uart
C:   00002D07  A$uart$1791                        uart
C:   00002D09  A$uart$1792                        uart
C:   00002D0B  A$uart$1795                        uart
C:   00002D0B  C$uart.c$208$1_0$96                uart
C:   00002D0E  A$uart$1796                        uart
C:   00002D10  A$uart$1797                        uart
C:   00002D11  A$uart$1798                        uart
C:   00002D12  A$uart$1799                        uart
C:   00002D13  A$uart$1800                        uart
C:   00002D14  A$uart$1801                        uart
C:   00002D17  A$uart$1802                        uart
C:   00002D1A  A$uart$1803                        uart
C:   00002D1D  A$uart$1806                        uart
C:   00002D1D  C$uart.c$209$1_0$96                uart
C:   00002D20  A$uart$1807                        uart
C:   00002D22  A$uart$1808                        uart
C:   00002D23  A$uart$1809                        uart
C:   00002D24  A$uart$1810                        uart
C:   00002D25  A$uart$1811                        uart
C:   00002D26  A$uart$1812                        uart
C:   00002D29  A$uart$1813                        uart
C:   00002D2C  A$uart$1814                        uart
C:   00002D2F  A$uart$1817                        uart
C:   00002D2F  C$uart.c$210$1_0$96                uart
C:   00002D32  A$uart$1818                        uart
C:   00002D34  A$uart$1819                        uart
C:   00002D35  A$uart$1820                        uart
ASxxxx Linker V03.00 + NoICE + sdld,  page 68.
Hexadecimal  [32-Bits]

Area                                    Addr        Size        Decimal Bytes (Attributes)
--------------------------------        ----        ----        ------- ----- ------------
CSEG                                00002062    00001C05 =        7173. bytes (REL,CON,CODE)

      Value  Global                              Global Defined In Module
      -----  --------------------------------   ------------------------
C:   00002D36  A$uart$1821                        uart
C:   00002D37  A$uart$1822                        uart
C:   00002D38  A$uart$1823                        uart
C:   00002D3B  A$uart$1824                        uart
C:   00002D3E  A$uart$1825                        uart
C:   00002D41  A$uart$1828                        uart
C:   00002D41  C$uart.c$211$1_0$96                uart
C:   00002D44  A$uart$1829                        uart
C:   00002D46  A$uart$1830                        uart
C:   00002D47  A$uart$1831                        uart
C:   00002D48  A$uart$1832                        uart
C:   00002D49  A$uart$1833                        uart
C:   00002D4A  A$uart$1834                        uart
C:   00002D4D  A$uart$1835                        uart
C:   00002D50  A$uart$1836                        uart
C:   00002D53  A$uart$1839                        uart
C:   00002D53  C$uart.c$212$1_0$96                uart
C:   00002D56  A$uart$1840                        uart
C:   00002D58  A$uart$1841                        uart
C:   00002D59  A$uart$1842                        uart
C:   00002D5A  A$uart$1843                        uart
C:   00002D5B  A$uart$1844                        uart
C:   00002D5C  A$uart$1845                        uart
C:   00002D5F  A$uart$1846                        uart
C:   00002D62  A$uart$1847                        uart
C:   00002D65  A$uart$1850                        uart
C:   00002D65  C$uart.c$213$1_0$96                uart
C:   00002D68  A$uart$1851                        uart
C:   00002D6A  A$uart$1852                        uart
C:   00002D6B  A$uart$1853                        uart
C:   00002D6C  A$uart$1854                        uart
C:   00002D6D  A$uart$1855                        uart
C:   00002D6E  A$uart$1856                        uart
C:   00002D71  A$uart$1857                        uart
C:   00002D74  A$uart$1858                        uart
C:   00002D77  A$uart$1861                        uart
C:   00002D77  C$uart.c$215$1_0$96                uart
C:   00002D79  A$uart$1862                        uart
C:   00002D7B  A$uart$1863                        uart
C:   00002D7D  A$uart$1864                        uart
C:   00002D7F  A$uart$1865                        uart
C:   00002D81  A$uart$1866                        uart
C:   00002D83  A$uart$1867                        uart
C:   00002D86  A$uart$1868                        uart
C:   00002D88  A$uart$1869                        uart
C:   00002D8A  A$uart$1870                        uart
C:   00002D8C  A$uart$1873                        uart
C:   00002D8C  C$uart.c$216$1_0$96                uart
C:   00002D8F  A$uart$1874                        uart
C:   00002D91  A$uart$1875                        uart
C:   00002D92  A$uart$1876                        uart
ASxxxx Linker V03.00 + NoICE + sdld,  page 69.
Hexadecimal  [32-Bits]

Area                                    Addr        Size        Decimal Bytes (Attributes)
--------------------------------        ----        ----        ------- ----- ------------
CSEG                                00002062    00001C05 =        7173. bytes (REL,CON,CODE)

      Value  Global                              Global Defined In Module
      -----  --------------------------------   ------------------------
C:   00002D93  A$uart$1877                        uart
C:   00002D94  A$uart$1878                        uart
C:   00002D95  A$uart$1879                        uart
C:   00002D98  A$uart$1880                        uart
C:   00002D9B  A$uart$1881                        uart
C:   00002D9E  A$uart$1884                        uart
C:   00002D9E  C$uart.c$217$1_0$96                uart
C:   00002DA0  A$uart$1885                        uart
C:   00002DA2  A$uart$1886                        uart
C:   00002DA4  A$uart$1887                        uart
C:   00002DA6  A$uart$1888                        uart
C:   00002DA8  A$uart$1889                        uart
C:   00002DAA  A$uart$1890                        uart
C:   00002DAD  A$uart$1891                        uart
C:   00002DAF  A$uart$1892                        uart
C:   00002DB1  A$uart$1893                        uart
C:   00002DB3  A$uart$1896                        uart
C:   00002DB3  C$uart.c$219$1_0$96                uart
C:   00002DB5  A$uart$1897                        uart
C:   00002DB7  A$uart$1898                        uart
C:   00002DB9  A$uart$1899                        uart
C:   00002DBB  A$uart$1900                        uart
C:   00002DBD  A$uart$1901                        uart
C:   00002DBF  A$uart$1902                        uart
C:   00002DC2  A$uart$1903                        uart
C:   00002DC4  A$uart$1904                        uart
C:   00002DC6  A$uart$1905                        uart
C:   00002DC8  A$uart$1908                        uart
C:   00002DC8  C$uart.c$220$1_0$96                uart
C:   00002DCB  A$uart$1909                        uart
C:   00002DCD  A$uart$1910                        uart
C:   00002DCE  A$uart$1911                        uart
C:   00002DCF  A$uart$1912                        uart
C:   00002DD0  A$uart$1913                        uart
C:   00002DD1  A$uart$1914                        uart
C:   00002DD4  A$uart$1915                        uart
C:   00002DD7  A$uart$1916                        uart
C:   00002DDA  A$uart$1919                        uart
C:   00002DDA  C$uart.c$221$1_0$96                uart
C:   00002DDC  A$uart$1920                        uart
C:   00002DDE  A$uart$1921                        uart
C:   00002DE0  A$uart$1922                        uart
C:   00002DE2  A$uart$1923                        uart
C:   00002DE4  A$uart$1924                        uart
C:   00002DE6  A$uart$1925                        uart
C:   00002DE9  A$uart$1926                        uart
C:   00002DEB  A$uart$1927                        uart
C:   00002DED  A$uart$1928                        uart
C:   00002DEF  A$uart$1931                        uart
C:   00002DEF  C$uart.c$222$1_0$96                uart
C:   00002DF2  A$uart$1932                        uart
ASxxxx Linker V03.00 + NoICE + sdld,  page 70.
Hexadecimal  [32-Bits]

Area                                    Addr        Size        Decimal Bytes (Attributes)
--------------------------------        ----        ----        ------- ----- ------------
CSEG                                00002062    00001C05 =        7173. bytes (REL,CON,CODE)

      Value  Global                              Global Defined In Module
      -----  --------------------------------   ------------------------
C:   00002DF4  A$uart$1933                        uart
C:   00002DF5  A$uart$1934                        uart
C:   00002DF6  A$uart$1935                        uart
C:   00002DF7  A$uart$1936                        uart
C:   00002DF8  A$uart$1937                        uart
C:   00002DFB  A$uart$1938                        uart
C:   00002DFE  A$uart$1939                        uart
C:   00002E01  A$uart$1942                        uart
C:   00002E01  C$uart.c$223$1_0$96                uart
C:   00002E04  A$uart$1943                        uart
C:   00002E06  A$uart$1944                        uart
C:   00002E07  A$uart$1945                        uart
C:   00002E08  A$uart$1946                        uart
C:   00002E09  A$uart$1947                        uart
C:   00002E0A  A$uart$1948                        uart
C:   00002E0D  A$uart$1949                        uart
C:   00002E10  A$uart$1950                        uart
C:   00002E13  A$uart$1953                        uart
C:   00002E13  C$uart.c$224$1_0$96                uart
C:   00002E16  A$uart$1954                        uart
C:   00002E18  A$uart$1955                        uart
C:   00002E19  A$uart$1956                        uart
C:   00002E1A  A$uart$1957                        uart
C:   00002E1B  A$uart$1958                        uart
C:   00002E1C  A$uart$1959                        uart
C:   00002E1F  A$uart$1960                        uart
C:   00002E22  A$uart$1961                        uart
C:   00002E25  A$uart$1964                        uart
C:   00002E25  C$uart.c$225$1_0$96                uart
C:   00002E27  A$uart$1965                        uart
C:   00002E29  A$uart$1966                        uart
C:   00002E2B  A$uart$1967                        uart
C:   00002E2D  A$uart$1968                        uart
C:   00002E2F  A$uart$1969                        uart
C:   00002E31  A$uart$1970                        uart
C:   00002E34  A$uart$1971                        uart
C:   00002E36  A$uart$1972                        uart
C:   00002E38  A$uart$1973                        uart
C:   00002E3A  A$uart$1976                        uart
C:   00002E3A  C$uart.c$227$1_0$96                uart
C:   00002E3C  A$uart$1977                        uart
C:   00002E3E  A$uart$1978                        uart
C:   00002E40  A$uart$1979                        uart
C:   00002E42  A$uart$1980                        uart
C:   00002E44  A$uart$1981                        uart
C:   00002E46  A$uart$1982                        uart
C:   00002E49  A$uart$1983                        uart
C:   00002E4B  A$uart$1984                        uart
C:   00002E4D  A$uart$1985                        uart
C:   00002E4F  A$uart$1988                        uart
C:   00002E4F  C$uart.c$228$1_0$96                uart
ASxxxx Linker V03.00 + NoICE + sdld,  page 71.
Hexadecimal  [32-Bits]

Area                                    Addr        Size        Decimal Bytes (Attributes)
--------------------------------        ----        ----        ------- ----- ------------
CSEG                                00002062    00001C05 =        7173. bytes (REL,CON,CODE)

      Value  Global                              Global Defined In Module
      -----  --------------------------------   ------------------------
C:   00002E52  A$uart$1989                        uart
C:   00002E54  A$uart$1990                        uart
C:   00002E55  A$uart$1991                        uart
C:   00002E56  A$uart$1992                        uart
C:   00002E57  A$uart$1993                        uart
C:   00002E58  A$uart$1994                        uart
C:   00002E5B  A$uart$1995                        uart
C:   00002E5E  A$uart$1996                        uart
C:   00002E61  A$uart$1999                        uart
C:   00002E61  C$uart.c$229$1_0$96                uart
C:   00002E64  A$uart$2000                        uart
C:   00002E66  A$uart$2001                        uart
C:   00002E67  A$uart$2002                        uart
C:   00002E68  A$uart$2003                        uart
C:   00002E69  A$uart$2004                        uart
C:   00002E6A  A$uart$2005                        uart
C:   00002E6D  A$uart$2006                        uart
C:   00002E70  A$uart$2007                        uart
C:   00002E73  A$uart$2010                        uart
C:   00002E73  C$uart.c$230$1_0$96                uart
C:   00002E76  A$uart$2011                        uart
C:   00002E78  A$uart$2012                        uart
C:   00002E79  A$uart$2013                        uart
C:   00002E7A  A$uart$2014                        uart
C:   00002E7B  A$uart$2015                        uart
C:   00002E7C  A$uart$2016                        uart
C:   00002E7F  A$uart$2017                        uart
C:   00002E82  A$uart$2018                        uart
C:   00002E85  A$uart$2021                        uart
C:   00002E85  C$uart.c$231$1_0$96                uart
C:   00002E87  A$uart$2022                        uart
C:   00002E89  A$uart$2023                        uart
C:   00002E8B  A$uart$2024                        uart
C:   00002E8D  A$uart$2025                        uart
C:   00002E8F  A$uart$2026                        uart
C:   00002E91  A$uart$2027                        uart
C:   00002E94  A$uart$2028                        uart
C:   00002E96  A$uart$2029                        uart
C:   00002E98  A$uart$2030                        uart
C:   00002E9A  A$uart$2033                        uart
C:   00002E9A  C$uart.c$233$1_0$96                uart
C:   00002E9C  A$uart$2034                        uart
C:   00002E9E  A$uart$2035                        uart
C:   00002EA0  A$uart$2036                        uart
C:   00002EA2  A$uart$2037                        uart
C:   00002EA4  A$uart$2038                        uart
C:   00002EA6  A$uart$2039                        uart
C:   00002EA9  A$uart$2040                        uart
C:   00002EAB  A$uart$2041                        uart
C:   00002EAD  A$uart$2042                        uart
C:   00002EAF  A$uart$2045                        uart
ASxxxx Linker V03.00 + NoICE + sdld,  page 72.
Hexadecimal  [32-Bits]

Area                                    Addr        Size        Decimal Bytes (Attributes)
--------------------------------        ----        ----        ------- ----- ------------
CSEG                                00002062    00001C05 =        7173. bytes (REL,CON,CODE)

      Value  Global                              Global Defined In Module
      -----  --------------------------------   ------------------------
C:   00002EAF  C$uart.c$234$1_0$96                uart
C:   00002EB2  A$uart$2046                        uart
C:   00002EB4  A$uart$2047                        uart
C:   00002EB5  A$uart$2048                        uart
C:   00002EB6  A$uart$2049                        uart
C:   00002EB7  A$uart$2050                        uart
C:   00002EB8  A$uart$2051                        uart
C:   00002EBB  A$uart$2052                        uart
C:   00002EBE  A$uart$2053                        uart
C:   00002EC1  A$uart$2056                        uart
C:   00002EC1  C$uart.c$235$1_0$96                uart
C:   00002EC4  A$uart$2057                        uart
C:   00002EC6  A$uart$2058                        uart
C:   00002EC7  A$uart$2059                        uart
C:   00002EC8  A$uart$2060                        uart
C:   00002EC9  A$uart$2061                        uart
C:   00002ECA  A$uart$2062                        uart
C:   00002ECD  A$uart$2063                        uart
C:   00002ED0  A$uart$2064                        uart
C:   00002ED3  A$uart$2067                        uart
C:   00002ED3  C$uart.c$236$1_0$96                uart
C:   00002ED6  A$uart$2068                        uart
C:   00002ED8  A$uart$2069                        uart
C:   00002ED9  A$uart$2070                        uart
C:   00002EDA  A$uart$2071                        uart
C:   00002EDB  A$uart$2072                        uart
C:   00002EDC  A$uart$2073                        uart
C:   00002EDF  A$uart$2074                        uart
C:   00002EE2  A$uart$2075                        uart
C:   00002EE5  A$uart$2078                        uart
C:   00002EE5  C$uart.c$237$1_0$96                uart
C:   00002EE7  A$uart$2079                        uart
C:   00002EE9  A$uart$2080                        uart
C:   00002EEB  A$uart$2081                        uart
C:   00002EED  A$uart$2082                        uart
C:   00002EEF  A$uart$2083                        uart
C:   00002EF1  A$uart$2084                        uart
C:   00002EF4  A$uart$2085                        uart
C:   00002EF6  A$uart$2086                        uart
C:   00002EF8  A$uart$2087                        uart
C:   00002EFA  A$uart$2090                        uart
C:   00002EFA  C$uart.c$239$1_0$96                uart
C:   00002EFC  A$uart$2091                        uart
C:   00002EFE  A$uart$2092                        uart
C:   00002F00  A$uart$2093                        uart
C:   00002F02  A$uart$2094                        uart
C:   00002F04  A$uart$2095                        uart
C:   00002F06  A$uart$2096                        uart
C:   00002F09  A$uart$2097                        uart
C:   00002F0B  A$uart$2098                        uart
C:   00002F0D  A$uart$2099                        uart
ASxxxx Linker V03.00 + NoICE + sdld,  page 73.
Hexadecimal  [32-Bits]

Area                                    Addr        Size        Decimal Bytes (Attributes)
--------------------------------        ----        ----        ------- ----- ------------
CSEG                                00002062    00001C05 =        7173. bytes (REL,CON,CODE)

      Value  Global                              Global Defined In Module
      -----  --------------------------------   ------------------------
C:   00002F0F  A$uart$2102                        uart
C:   00002F0F  C$uart.c$240$1_0$96                uart
C:   00002F12  A$uart$2103                        uart
C:   00002F14  A$uart$2104                        uart
C:   00002F15  A$uart$2105                        uart
C:   00002F16  A$uart$2106                        uart
C:   00002F17  A$uart$2107                        uart
C:   00002F18  A$uart$2108                        uart
C:   00002F1B  A$uart$2109                        uart
C:   00002F1E  A$uart$2110                        uart
C:   00002F21  A$uart$2113                        uart
C:   00002F21  C$uart.c$241$1_0$96                uart
C:   00002F24  A$uart$2114                        uart
C:   00002F26  A$uart$2115                        uart
C:   00002F27  A$uart$2116                        uart
C:   00002F28  A$uart$2117                        uart
C:   00002F29  A$uart$2118                        uart
C:   00002F2A  A$uart$2119                        uart
C:   00002F2D  A$uart$2120                        uart
C:   00002F30  A$uart$2121                        uart
C:   00002F33  A$uart$2124                        uart
C:   00002F33  C$uart.c$242$1_0$96                uart
C:   00002F36  A$uart$2125                        uart
C:   00002F38  A$uart$2126                        uart
C:   00002F39  A$uart$2127                        uart
C:   00002F3A  A$uart$2128                        uart
C:   00002F3B  A$uart$2129                        uart
C:   00002F3C  A$uart$2130                        uart
C:   00002F3F  A$uart$2131                        uart
C:   00002F42  A$uart$2132                        uart
C:   00002F45  A$uart$2135                        uart
C:   00002F45  C$uart.c$243$1_0$96                uart
C:   00002F47  A$uart$2136                        uart
C:   00002F49  A$uart$2137                        uart
C:   00002F4B  A$uart$2138                        uart
C:   00002F4D  A$uart$2139                        uart
C:   00002F4F  A$uart$2140                        uart
C:   00002F51  A$uart$2141                        uart
C:   00002F54  A$uart$2142                        uart
C:   00002F56  A$uart$2143                        uart
C:   00002F58  A$uart$2144                        uart
C:   00002F5A  A$uart$2147                        uart
C:   00002F5A  C$uart.c$245$1_0$96                uart
C:   00002F5C  A$uart$2148                        uart
C:   00002F5E  A$uart$2149                        uart
C:   00002F60  A$uart$2150                        uart
C:   00002F62  A$uart$2151                        uart
C:   00002F64  A$uart$2152                        uart
C:   00002F66  A$uart$2153                        uart
C:   00002F69  A$uart$2154                        uart
C:   00002F6B  A$uart$2155                        uart
ASxxxx Linker V03.00 + NoICE + sdld,  page 74.
Hexadecimal  [32-Bits]

Area                                    Addr        Size        Decimal Bytes (Attributes)
--------------------------------        ----        ----        ------- ----- ------------
CSEG                                00002062    00001C05 =        7173. bytes (REL,CON,CODE)

      Value  Global                              Global Defined In Module
      -----  --------------------------------   ------------------------
C:   00002F6D  A$uart$2156                        uart
C:   00002F6F  A$uart$2159                        uart
C:   00002F6F  C$uart.c$246$1_0$96                uart
C:   00002F72  A$uart$2160                        uart
C:   00002F74  A$uart$2161                        uart
C:   00002F75  A$uart$2162                        uart
C:   00002F76  A$uart$2163                        uart
C:   00002F77  A$uart$2164                        uart
C:   00002F78  A$uart$2165                        uart
C:   00002F7B  A$uart$2166                        uart
C:   00002F7E  A$uart$2167                        uart
C:   00002F81  A$uart$2170                        uart
C:   00002F81  C$uart.c$247$1_0$96                uart
C:   00002F84  A$uart$2171                        uart
C:   00002F86  A$uart$2172                        uart
C:   00002F87  A$uart$2173                        uart
C:   00002F88  A$uart$2174                        uart
C:   00002F89  A$uart$2175                        uart
C:   00002F8A  A$uart$2176                        uart
C:   00002F8D  A$uart$2177                        uart
C:   00002F90  A$uart$2178                        uart
C:   00002F93  A$uart$2181                        uart
C:   00002F93  C$uart.c$248$1_0$96                uart
C:   00002F96  A$uart$2182                        uart
C:   00002F98  A$uart$2183                        uart
C:   00002F99  A$uart$2184                        uart
C:   00002F9A  A$uart$2185                        uart
C:   00002F9B  A$uart$2186                        uart
C:   00002F9C  A$uart$2187                        uart
C:   00002F9F  A$uart$2188                        uart
C:   00002FA2  A$uart$2189                        uart
C:   00002FA5  A$uart$2192                        uart
C:   00002FA5  C$uart.c$249$1_0$96                uart
C:   00002FA7  A$uart$2193                        uart
C:   00002FA9  A$uart$2194                        uart
C:   00002FAB  A$uart$2195                        uart
C:   00002FAD  A$uart$2196                        uart
C:   00002FAF  A$uart$2197                        uart
C:   00002FB1  A$uart$2198                        uart
C:   00002FB4  A$uart$2199                        uart
C:   00002FB6  A$uart$2200                        uart
C:   00002FB8  A$uart$2201                        uart
C:   00002FBA  A$uart$2204                        uart
C:   00002FBA  C$uart.c$251$1_0$96                uart
C:   00002FBC  A$uart$2205                        uart
C:   00002FBE  A$uart$2206                        uart
C:   00002FC0  A$uart$2207                        uart
C:   00002FC2  A$uart$2208                        uart
C:   00002FC4  A$uart$2209                        uart
C:   00002FC6  A$uart$2210                        uart
C:   00002FC9  A$uart$2211                        uart
ASxxxx Linker V03.00 + NoICE + sdld,  page 75.
Hexadecimal  [32-Bits]

Area                                    Addr        Size        Decimal Bytes (Attributes)
--------------------------------        ----        ----        ------- ----- ------------
CSEG                                00002062    00001C05 =        7173. bytes (REL,CON,CODE)

      Value  Global                              Global Defined In Module
      -----  --------------------------------   ------------------------
C:   00002FCB  A$uart$2212                        uart
C:   00002FCD  A$uart$2213                        uart
C:   00002FCF  A$uart$2216                        uart
C:   00002FCF  C$uart.c$252$1_0$96                uart
C:   00002FD2  A$uart$2217                        uart
C:   00002FD4  A$uart$2218                        uart
C:   00002FD5  A$uart$2219                        uart
C:   00002FD6  A$uart$2220                        uart
C:   00002FD7  A$uart$2221                        uart
C:   00002FD8  A$uart$2222                        uart
C:   00002FDB  A$uart$2223                        uart
C:   00002FDE  A$uart$2224                        uart
C:   00002FE1  A$uart$2227                        uart
C:   00002FE1  C$uart.c$253$1_0$96                uart
C:   00002FE3  A$uart$2228                        uart
C:   00002FE5  A$uart$2229                        uart
C:   00002FE7  A$uart$2230                        uart
C:   00002FE9  A$uart$2231                        uart
C:   00002FEB  A$uart$2232                        uart
C:   00002FED  A$uart$2233                        uart
C:   00002FF0  A$uart$2234                        uart
C:   00002FF2  A$uart$2235                        uart
C:   00002FF4  A$uart$2236                        uart
C:   00002FF6  A$uart$2239                        uart
C:   00002FF6  C$uart.c$255$1_0$96                uart
C:   00002FF9  A$uart$2240                        uart
C:   00002FFB  A$uart$2241                        uart
C:   00002FFC  A$uart$2242                        uart
C:   00002FFD  A$uart$2243                        uart
C:   00002FFE  A$uart$2244                        uart
C:   00002FFF  A$uart$2245                        uart
C:   00003002  A$uart$2246                        uart
C:   00003005  A$uart$2247                        uart
C:   00003008  A$uart$2250                        uart
C:   00003008  C$uart.c$256$1_0$96                uart
C:   0000300B  A$uart$2251                        uart
C:   0000300D  A$uart$2252                        uart
C:   0000300E  A$uart$2253                        uart
C:   0000300F  A$uart$2254                        uart
C:   00003010  A$uart$2255                        uart
C:   00003011  A$uart$2256                        uart
C:   00003014  A$uart$2257                        uart
C:   00003017  A$uart$2258                        uart
C:   0000301A  A$uart$2261                        uart
C:   0000301A  C$uart.c$257$1_0$96                uart
C:   0000301D  A$uart$2262                        uart
C:   0000301F  A$uart$2263                        uart
C:   00003020  A$uart$2264                        uart
C:   00003021  A$uart$2265                        uart
C:   00003022  A$uart$2266                        uart
C:   00003023  A$uart$2267                        uart
ASxxxx Linker V03.00 + NoICE + sdld,  page 76.
Hexadecimal  [32-Bits]

Area                                    Addr        Size        Decimal Bytes (Attributes)
--------------------------------        ----        ----        ------- ----- ------------
CSEG                                00002062    00001C05 =        7173. bytes (REL,CON,CODE)

      Value  Global                              Global Defined In Module
      -----  --------------------------------   ------------------------
C:   00003026  A$uart$2268                        uart
C:   00003029  A$uart$2269                        uart
C:   0000302C  A$uart$2272                        uart
C:   0000302C  C$uart.c$258$1_0$96                uart
C:   0000302F  A$uart$2273                        uart
C:   00003031  A$uart$2274                        uart
C:   00003032  A$uart$2275                        uart
C:   00003033  A$uart$2276                        uart
C:   00003034  A$uart$2277                        uart
C:   00003035  A$uart$2278                        uart
C:   00003038  A$uart$2279                        uart
C:   0000303B  A$uart$2280                        uart
C:   0000303E  A$uart$2285                        uart
C:   0000303E  C$uart.c$260$1_0$96                uart
C:   0000303E  XG$print_UI$0$0                    uart
C:   0000303F  Fuart$__str_10$0_0$0               uart
C:   0000303F  Fuart$__str_11$0_0$0               uart
C:   0000303F  Fuart$__str_12$0_0$0               uart
C:   0000303F  Fuart$__str_13$0_0$0               uart
C:   0000303F  Fuart$__str_14$0_0$0               uart
C:   0000303F  Fuart$__str_15$0_0$0               uart
C:   0000303F  Fuart$__str_16$0_0$0               uart
C:   0000303F  Fuart$__str_17$0_0$0               uart
C:   0000303F  Fuart$__str_18$0_0$0               uart
C:   0000303F  Fuart$__str_2$0_0$0                uart
C:   0000303F  Fuart$__str_3$0_0$0                uart
C:   0000303F  Fuart$__str_4$0_0$0                uart
C:   0000303F  Fuart$__str_5$0_0$0                uart
C:   0000303F  Fuart$__str_6$0_0$0                uart
C:   0000303F  Fuart$__str_7$0_0$0                uart
C:   0000303F  Fuart$__str_8$0_0$0                uart
C:   0000303F  Fuart$__str_9$0_0$0                uart
C:   0000303F  _strchr                            _strchr
C:   000030A8  _printf_tiny                       printf_tiny
C:   000031B1  __mulint                           _mulint
C:   000031E0  _vprintf                           vprintf
C:   0000321F  _printf                            vprintf
C:   00003325  __print_format                     printf_large
C:   00003C33  _strlen                            _strlen
C:   00003C4B  __gptrget                          _gptrget
ASxxxx Linker V03.00 + NoICE + sdld,  page 77.
Hexadecimal  [32-Bits]

Area                                    Addr        Size        Decimal Bytes (Attributes)
--------------------------------        ----        ----        ------- ----- ------------
CONST                               00003C67    00000775 =        1909. bytes (REL,CON,CODE)

      Value  Global                              Global Defined In Module
      -----  --------------------------------   ------------------------
C:   00003C67  Fcommand_processing$__str_0$0_0$   command_processing
C:   00004004  Fmain$__str_0$0_0$0                main
C:   00004155  Fuart$__str_1$0_0$0                uart
ASxxxx Linker V03.00 + NoICE + sdld,  page 78.

Files Linked                              [ module(s) ]

obj\Debug\command_processing.rel          [  ]
obj\Debug\i2c.rel                         [  ]
obj\Debug\main.rel                        [  ]
obj\Debug\string_func.rel                 [  ]
obj\Debug\uart.rel                        [  ]


Libraries Linked                          [ object file ]

C:\Program Files\SDCC\bin\..\lib\large/mcs51.lib
                                          [ crtclear.rel ]
C:\Program Files\SDCC\bin\..\lib\large/mcs51.lib
                                          [ crtxinit.rel ]
C:\Program Files\SDCC\bin\..\lib\large/libsdcc.lib
                                          [ _strchr.rel ]
C:\Program Files\SDCC\bin\..\lib\large/libsdcc.lib
                                          [ printf_tiny.rel ]
C:\Program Files\SDCC\bin\..\lib\large/libint.lib
                                          [ _mulint.rel ]
C:\Program Files\SDCC\bin\..\lib\large/mcs51.lib
                                          [ crtxclear.rel ]
C:\Program Files\SDCC\bin\..\lib\large/libsdcc.lib
                                          [ _bp.rel ]
C:\Program Files\SDCC\bin\..\lib\large/libsdcc.lib
                                          [ vprintf.rel ]
C:\Program Files\SDCC\bin\..\lib\large/libsdcc.lib
                                          [ printf_large.rel ]
C:\Program Files\SDCC\bin\..\lib\large/mcs51.lib
                                          [ crtpagesfr.rel ]
C:\Program Files\SDCC\bin\..\lib\large/libsdcc.lib
                                          [ _strlen.rel ]
C:\Program Files\SDCC\bin\..\lib\large/mcs51.lib
                                          [ crtstart.rel ]
C:\Program Files\SDCC\bin\..\lib\large/libsdcc.lib
                                          [ _gptrget.rel ]

ASxxxx Linker V03.00 + NoICE + sdld,  page 79.

User Base Address Definitions

HOME = 0x2000
XSEG = 0x0400
PSEG = 0x0400
ISEG = 0x0000
BSEG = 0x0000

